(lp0
S'd'
p1
aF0.11141519581597127
aS'u'
p2
aF0.6478918332458078
a(I1154
I881
tp3
aF0.00805181081532802
a(I1155
I881
tp4
aF0.007977063936170592
a(I1155
I879
tp5
aF0.008016201787059973
a(I1157
I877
tp6
aF0.007999199278067026
a(I1158
I875
tp7
aF0.008004332110970513
a(I1161
I872
tp8
aF0.008007219329478787
a(I1163
I871
tp9
aF0.007978026342340017
a(I1167
I868
tp10
aF0.007987008799921202
a(I1171
I864
tp11
aF0.00804314915980342
a(I1172
I862
tp12
aF0.00794241731407197
a(I1175
I860
tp13
aF0.0080020864965753
a(I1178
I859
tp14
aF0.008033525098109284
a(I1179
I858
tp15
aF0.007994387247220014
a(I1181
I857
tp16
aF0.007922848388627335
a(I1181
I856
tp17
aF0.008037695524843347
a(I1182
I855
tp18
aF0.007997274465728288
a(I1183
I855
tp19
aF0.007995991257502388
a(I1185
I853
tp20
aF0.008031600285770546
a(I1186
I853
tp21
aF0.007987008799921202
a(I1188
I852
tp22
aF0.008021655422019824
a(I1188
I851
tp23
aF0.007987008799921202
a(I1188
I851
tp24
aF0.007987008799921202
a(I1190
I850
tp25
aF0.007977384738227178
a(I1191
I849
tp26
aF0.016013797054844625
a(I1192
I849
tp27
aF0.01603657400085401
a(I1192
I848
tp28
aF0.0240261492172269
a(I1193
I848
tp29
aF0.007960061427177867
a(I1193
I847
tp30
aF0.007976743134114006
a(I1194
I847
tp31
aF0.008021976224076521
a(I1194
I846
tp32
aF0.007954928594274158
a(I1195
I846
tp33
aF0.00804443236802932
a(I1196
I845
tp34
aF0.007925094003022437
a(I1197
I843
tp35
aF0.008068492522264492
a(I1197
I843
tp36
aF0.007984121581412928
a(I1199
I841
tp37
aF0.007922848388627335
a(I1200
I840
tp38
aF0.008059830866739892
a(I1202
I838
tp39
aF0.007938567689394382
a(I1203
I837
tp40
aF0.008038657931012771
a(I1204
I835
tp41
aF0.008044753170085794
a(I1205
I833
tp42
aF0.007983479977299979
a(I1206
I832
tp43
aF0.007988612810203577
a(I1206
I831
tp44
aF0.007987650404034152
a(I1208
I829
tp45
aF0.008047961190650321
a(I1208
I828
tp46
aF0.007971931103267105
a(I1209
I826
tp47
aF0.008029354671375222
a(I1210
I825
tp48
aF0.007947550146975457
a(I1211
I823
tp49
aF0.0080120313603258
a(I1212
I820
tp50
aF0.008008823339761051
a(I1213
I818
tp51
aF0.00796230704157308
a(I1215
I817
tp52
aF0.008044111565972845
a(I1215
I815
tp53
aF0.007968081478589406
a(I1216
I814
tp54
aF0.016039140417305697
a(I1217
I812
tp55
aF0.008001124090405876
a(I1217
I811
tp56
aF0.007985725591695303
a(I1218
I810
tp57
aF0.008012993766495224
a(I1218
I809
tp58
aF0.008024221838471624
a(I1218
I809
tp59
aF0.007898788234392162
a(I1219
I807
tp60
aF0.00805181081532802
a(I1220
I805
tp61
aF0.00796038222923423
a(I1220
I804
tp62
aF0.008011068954156375
a(I1221
I801
tp63
aF0.007986046393751778
a(I1222
I798
tp64
aF0.00805309402355392
a(I1224
I796
tp65
aF0.007990858424598901
a(I1224
I794
tp66
aF0.007968723082702356
a(I1224
I793
tp67
aF0.008007860933591626
a(I1225
I792
tp68
aF0.007955249396330855
a(I1225
I791
tp69
aF0.008055018835892769
a(I1225
I790
tp70
aF0.007999840882180198
a(I1226
I789
tp71
aF0.007998557673954299
a(I1226
I789
tp72
aF0.008002728100688028
a(I1226
I788
tp73
aF0.007995028851333075
a(I1226
I788
tp74
aF0.015999360962303477
a(I1226
I787
tp75
aF0.007986687997864728
a(I1227
I786
tp76
aF0.016004814597263328
a(I1227
I786
tp77
aF0.0079959912575025
a(I1227
I785
tp78
aF0.007975780727944803
a(I1227
I784
tp79
aF0.008030958681657596
a(I1228
I783
tp80
aF0.008022617828189249
a(I1228
I783
tp81
aF0.007985404789638828
a(I1229
I782
tp82
aF0.007916753149554534
a(I1229
I782
tp83
aF0.008073625355167868
a(I1229
I781
tp84
aF0.0160041729931506
a(I1229
I780
tp85
aF0.048032729509009275
a(I1229
I780
tp86
aF0.007958457416895603
a(I1229
I780
tp87
aF2.5840005748772854
ag1
aF0.09599456176353893
ag2
aF0.5279702501004913
ag1
aF0.09599969459644253
ag2
aF0.5759917515375239
ag1
aF0.08798220960115621
ag2
aF0.5200246247658544
ag1
aF0.08793505169885574
ag2
aF0.544019014579491
ag1
aF0.07214549528148329
ag2
aF0.5678170735345685
ag1
aF0.08805214444946685
ag2
aF0.7520030078400817
ag1
aF0.08798028478881648
ag2
aF0.6318777153889066
ag1
aF0.07221671333801893
ag2
aF2.1842327714057586
a(I1229
I779
tp88
aF0.007549113992839196
a(I1229
I777
tp89
aF0.008054377231779597
a(I1229
I775
tp90
aF0.00791514913927216
a(I1230
I773
tp91
aF0.008238517612193519
a(I1230
I770
tp92
aF0.0077836202961201195
a(I1231
I767
tp93
aF0.008021655422020046
a(I1231
I766
tp94
aF0.008000161684236673
a(I1231
I763
tp95
aF0.00801267296443875
a(I1231
I761
tp96
aF0.007995028851333075
a(I1231
I760
tp97
aF0.00794562533463683
a(I1231
I756
tp98
aF0.008027109056980564
a(I1227
I752
tp99
aF0.008000482486293592
a(I1224
I749
tp100
aF0.007964873458025323
a(I1221
I743
tp101
aF0.008038016326899822
a(I1219
I738
tp102
aF0.008050527607103675
a(I1216
I731
tp103
aF0.007898467432335465
a(I1216
I728
tp104
aF0.0080479611906501
a(I1216
I728
tp105
aF0.5040056948781064
a(I1215
I728
tp106
aF0.007968402280646103
a(I1215
I728
tp107
aF0.008323209355101113
a(I1215
I729
tp108
aF0.007672943586637615
a(I1215
I730
tp109
aF0.007968723082701246
a(I1215
I731
tp110
aF0.032062240731788094
a(I1215
I732
tp111
aF0.01595958150730148
a(I1215
I733
tp112
aF0.007954607792218127
a(I1214
I734
tp113
aF0.008074266959280152
a(I1214
I734
tp114
aF0.09610812569152927
a(I1213
I734
tp115
aF0.07990569702748118
a(I1214
I733
tp116
aF0.007952041375766328
a(I1221
I728
tp117
aF0.0079786679464533
a(I1229
I720
tp118
aF0.008001124090405654
a(I1239
I710
tp119
aF0.008183660460538533
a(I1252
I697
tp120
aF0.007813775689427871
a(I1266
I681
tp121
aF0.008001444892462573
a(I1281
I660
tp122
aF0.007997916069841793
a(I1296
I640
tp123
aF0.00794883335520069
a(I1313
I615
tp124
aF0.008236913601912477
a(I1331
I591
tp125
aF0.007826286969631724
a(I1350
I566
tp126
aF0.007948512553143772
a(I1369
I537
tp127
aF0.00798219676907408
a(I1390
I512
tp128
aF0.008677695627500981
a(I1406
I487
tp129
aF0.007392883391338145
a(I1423
I465
tp130
aF0.007979951154679199
a(I1432
I449
tp131
aF0.00804443236802932
a(I1432
I449
tp132
aF0.015976263214236397
a(I1436
I444
tp133
aF0.008164412337148264
a(I1440
I435
tp134
aF0.007835590229266387
a(I1445
I427
tp135
aF0.007947870949033486
a(I1449
I420
tp136
aF0.008038016326899822
a(I1453
I413
tp137
aF0.008399881046596391
a(I1457
I407
tp138
aF0.007572211740905388
a(I1460
I401
tp139
aF0.007991500028710519
a(I1462
I396
tp140
aF0.008014276974719792
a(I1464
I391
tp141
aF0.007914186733101403
a(I1466
I385
tp142
aF0.008089023853878885
a(I1469
I378
tp143
aF0.007970647895040983
a(I1470
I372
tp144
aF0.008061434877022933
a(I1473
I367
tp145
aF0.007956211802499169
a(I1476
I360
tp146
aF0.008024221838471846
a(I1479
I355
tp147
aF0.007983479977299979
a(I1481
I349
tp148
aF0.00795589100044225
a(I1482
I343
tp149
aF0.008035770712504942
a(I1484
I339
tp150
aF0.00813971057880103
a(I1486
I335
tp151
aF0.007864783216406934
a(I1487
I329
tp152
aF0.008117896038960737
a(I1488
I326
tp153
aF0.007842968676566642
a(I1489
I322
tp154
aF0.008060472470853952
a(I1490
I318
tp155
aF0.007927981221531155
a(I1490
I316
tp156
aF0.00803833712895674
a(I1492
I313
tp157
aF0.008004011308914372
a(I1492
I310
tp158
aF0.007956532604556088
a(I1492
I306
tp159
aF0.008076833375733727
a(I1493
I303
tp160
aF0.007971931103266883
a(I1493
I301
tp161
aF0.007944983730524768
a(I1493
I298
tp162
aF0.008013956172664649
a(I1493
I296
tp163
aF0.008045073972143157
a(I1493
I295
tp164
aF0.008433565262526699
a(I1493
I294
tp165
aF0.007494898445296272
a(I1493
I292
tp166
aF0.007992462434881276
a(I1493
I291
tp167
aF0.008035770712504942
a(I1493
I291
tp168
aF0.008064322095529874
a(I1493
I289
tp169
aF0.007914186733103179
a(I1493
I288
tp170
aF0.008047640388594957
a(I1493
I287
tp171
aF0.007936963679110676
a(I1493
I286
tp172
aF0.008016201787061306
a(I1493
I284
tp173
aF0.007973214311492782
a(I1493
I283
tp174
aF0.00807009653254731
a(I1493
I282
tp175
aF0.007983159175244836
a(I1493
I280
tp176
aF0.007997595267784874
a(I1493
I278
tp177
aF0.007979309550567137
a(I1492
I278
tp178
aF0.008025184244640826
a(I1492
I276
tp179
aF0.008029675473432363
a(I1492
I276
tp180
aF0.007959419823064806
a(I1492
I275
tp181
aF0.007983800779356898
a(I1492
I273
tp182
aF0.007977705540284319
a(I1492
I273
tp183
aF0.016191200592071908
a(I1492
I272
tp184
aF0.0238805050835893
a(I1492
I271
tp185
aF0.01596150631963944
a(I1492
I270
tp186
aF0.015957977497020437
a(I1492
I270
tp187
aF0.008028713067261606
a(I1492
I270
tp188
aF0.016195050216749607
a(I1492
I269
tp189
aF0.03988884850347496
a(I1492
I268
tp190
a.