(lp0
(I749
I361
tp1
a(I747
I361
tp2
a(I747
I360
tp3
a(I747
I359
tp4
aI1
a(I747
I359
tp5
a(I747
I358
tp6
a(I746
I357
tp7
a(I745
I356
tp8
a(I744
I356
tp9
a(I744
I355
tp10
a(I743
I355
tp11
a(I743
I355
tp12
a(I742
I355
tp13
a(I742
I354
tp14
a(I741
I354
tp15
a(I741
I354
tp16
a(I740
I354
tp17
a(I740
I354
tp18
a(I740
I354
tp19
a(I739
I353
tp20
a(I738
I353
tp21
a(I738
I353
tp22
a(I737
I353
tp23
a(I737
I353
tp24
a(I736
I353
tp25
a(I735
I353
tp26
a(I735
I353
tp27
a(I733
I353
tp28
a(I733
I353
tp29
a(I732
I353
tp30
a(I732
I353
tp31
a(I731
I353
tp32
a(I730
I353
tp33
a(I730
I353
tp34
a(I729
I353
tp35
a(I728
I353
tp36
a(I727
I353
tp37
a(I727
I354
tp38
a(I725
I355
tp39
a(I725
I355
tp40
a(I724
I356
tp41
a(I724
I356
tp42
a(I724
I356
tp43
a(I724
I357
tp44
a(I723
I358
tp45
a(I722
I359
tp46
a(I722
I359
tp47
a(I722
I360
tp48
a(I722
I361
tp49
a(I722
I361
tp50
a(I721
I363
tp51
a(I721
I363
tp52
a(I721
I365
tp53
a(I721
I365
tp54
a(I721
I366
tp55
a(I721
I368
tp56
a(I721
I368
tp57
a(I721
I369
tp58
a(I721
I370
tp59
a(I721
I371
tp60
a(I721
I371
tp61
a(I721
I371
tp62
a(I721
I373
tp63
a(I721
I373
tp64
a(I721
I375
tp65
a(I721
I376
tp66
a(I721
I376
tp67
a(I721
I376
tp68
a(I721
I377
tp69
a(I721
I378
tp70
a(I721
I378
tp71
a(I721
I379
tp72
a(I721
I380
tp73
a(I721
I380
tp74
a(I721
I381
tp75
a(I722
I381
tp76
a(I722
I382
tp77
a(I722
I382
tp78
a(I722
I383
tp79
a(I722
I383
tp80
a(I723
I384
tp81
a(I723
I385
tp82
a(I723
I385
tp83
a(I724
I386
tp84
a(I724
I387
tp85
a(I724
I387
tp86
a(I724
I388
tp87
a(I724
I388
tp88
a(I724
I388
tp89
a(I724
I389
tp90
a(I725
I390
tp91
a(I725
I390
tp92
a(I725
I392
tp93
a(I725
I392
tp94
a(I725
I393
tp95
a(I725
I393
tp96
a(I725
I394
tp97
a(I725
I395
tp98
a(I725
I395
tp99
a(I725
I396
tp100
a(I726
I396
tp101
a(I726
I397
tp102
a(I726
I397
tp103
a(I726
I398
tp104
a(I727
I399
tp105
a(I727
I400
tp106
a(I727
I400
tp107
a(I727
I401
tp108
a(I727
I402
tp109
a(I727
I403
tp110
a(I728
I403
tp111
a(I728
I404
tp112
a(I728
I405
tp113
a(I728
I405
tp114
a(I728
I406
tp115
a(I728
I407
tp116
a(I728
I407
tp117
a(I729
I408
tp118
a(I729
I409
tp119
a(I729
I410
tp120
a(I729
I410
tp121
a(I729
I410
tp122
a(I729
I411
tp123
a(I729
I412
tp124
a(I730
I413
tp125
a(I730
I414
tp126
a(I730
I414
tp127
a(I730
I415
tp128
a(I730
I415
tp129
a(I730
I416
tp130
a(I730
I417
tp131
a(I730
I417
tp132
a(I730
I418
tp133
a(I730
I419
tp134
a(I730
I419
tp135
a(I730
I420
tp136
a(I730
I420
tp137
a(I730
I421
tp138
a(I730
I422
tp139
a(I730
I422
tp140
a(I731
I423
tp141
a(I731
I424
tp142
a(I731
I424
tp143
a(I731
I425
tp144
a(I731
I425
tp145
a(I731
I426
tp146
a(I731
I426
tp147
a(I732
I427
tp148
a(I732
I427
tp149
a(I732
I428
tp150
a(I732
I429
tp151
a(I732
I429
tp152
a(I732
I430
tp153
a(I732
I431
tp154
a(I732
I431
tp155
a(I732
I432
tp156
a(I732
I432
tp157
a(I732
I433
tp158
a(I732
I433
tp159
a(I732
I434
tp160
a(I732
I434
tp161
a(I733
I434
tp162
a(I733
I435
tp163
a(I733
I436
tp164
a(I733
I436
tp165
a(I733
I437
tp166
a(I733
I438
tp167
a(I733
I438
tp168
a(I733
I439
tp169
a(I733
I439
tp170
a(I733
I440
tp171
a(I733
I441
tp172
a(I733
I441
tp173
a(I733
I442
tp174
a(I733
I443
tp175
a(I733
I443
tp176
aI0
a(I733
I443
tp177
a(I735
I440
tp178
a(I737
I435
tp179
a(I740
I429
tp180
a(I744
I422
tp181
a(I748
I415
tp182
a(I751
I407
tp183
a(I754
I401
tp184
a(I757
I393
tp185
a(I760
I387
tp186
a(I761
I385
tp187
a(I762
I381
tp188
a(I764
I377
tp189
a(I765
I376
tp190
a(I765
I374
tp191
a(I765
I373
tp192
a(I767
I372
tp193
a(I767
I372
tp194
a(I767
I371
tp195
a(I767
I371
tp196
a(I767
I370
tp197
a(I767
I370
tp198
a(I767
I369
tp199
a(I767
I368
tp200
a(I767
I368
tp201
a(I767
I368
tp202
a(I767
I367
tp203
a(I767
I367
tp204
a(I767
I366
tp205
a(I767
I366
tp206
a(I766
I365
tp207
a(I765
I365
tp208
a(I765
I364
tp209
a(I765
I363
tp210
a(I765
I363
tp211
a(I765
I362
tp212
a(I765
I362
tp213
a(I765
I361
tp214
a(I765
I361
tp215
a(I764
I360
tp216
a(I763
I360
tp217
a(I763
I360
tp218
a(I762
I360
tp219
a(I762
I360
tp220
a(I761
I360
tp221
a(I760
I360
tp222
a(I760
I360
tp223
a(I759
I360
tp224
a(I758
I360
tp225
a(I758
I360
tp226
a(I757
I360
tp227
a(I757
I360
tp228
a(I756
I360
tp229
a(I756
I360
tp230
a(I755
I360
tp231
a(I754
I360
tp232
a(I753
I360
tp233
a(I753
I360
tp234
a(I752
I360
tp235
a(I751
I360
tp236
a(I751
I360
tp237
aI1
a(I750
I360
tp238
a(I750
I359
tp239
a(I750
I358
tp240
a(I750
I357
tp241
a(I750
I356
tp242
a(I750
I355
tp243
a(I750
I353
tp244
a(I750
I352
tp245
a(I751
I351
tp246
a(I751
I350
tp247
a(I751
I348
tp248
a(I752
I346
tp249
a(I752
I346
tp250
a(I753
I345
tp251
a(I753
I345
tp252
a(I753
I344
tp253
a(I753
I343
tp254
a(I753
I342
tp255
a(I754
I341
tp256
a(I754
I340
tp257
a(I755
I338
tp258
a(I755
I338
tp259
a(I756
I337
tp260
a(I756
I336
tp261
a(I756
I335
tp262
a(I757
I334
tp263
a(I757
I333
tp264
a(I758
I332
tp265
a(I758
I332
tp266
a(I759
I331
tp267
a(I759
I329
tp268
a(I759
I328
tp269
a(I760
I327
tp270
a(I761
I327
tp271
a(I761
I326
tp272
a(I761
I326
tp273
a(I762
I325
tp274
a(I763
I324
tp275
a(I763
I323
tp276
a(I764
I323
tp277
a(I764
I322
tp278
a(I765
I322
tp279
a(I766
I321
tp280
a(I766
I321
tp281
a(I767
I320
tp282
a(I768
I320
tp283
a(I769
I319
tp284
a(I769
I318
tp285
a(I770
I318
tp286
a(I770
I317
tp287
a(I771
I317
tp288
a(I771
I317
tp289
a(I772
I316
tp290
a(I773
I316
tp291
a(I774
I315
tp292
a(I775
I315
tp293
a(I775
I315
tp294
a(I776
I315
tp295
a(I777
I314
tp296
a(I777
I314
tp297
a(I778
I313
tp298
a(I778
I313
tp299
a(I780
I313
tp300
a(I780
I312
tp301
a(I781
I312
tp302
a(I782
I311
tp303
a(I783
I311
tp304
a(I783
I311
tp305
a(I784
I311
tp306
a(I785
I311
tp307
a(I786
I310
tp308
a(I786
I310
tp309
a(I788
I310
tp310
a(I789
I309
tp311
a(I790
I309
tp312
a(I791
I309
tp313
a(I791
I308
tp314
a(I792
I308
tp315
a(I793
I308
tp316
a(I794
I308
tp317
a(I794
I308
tp318
a(I795
I308
tp319
a(I796
I307
tp320
a(I796
I307
tp321
a(I797
I307
tp322
a(I798
I307
tp323
a(I798
I307
tp324
a(I798
I306
tp325
a(I799
I306
tp326
a(I800
I306
tp327
a(I800
I306
tp328
a(I801
I306
tp329
a(I801
I306
tp330
a(I803
I306
tp331
a(I803
I306
tp332
a(I805
I306
tp333
a(I806
I306
tp334
a(I808
I306
tp335
a(I809
I306
tp336
a(I809
I306
tp337
a(I810
I306
tp338
a(I811
I306
tp339
a(I812
I306
tp340
a(I813
I306
tp341
a(I813
I306
tp342
a(I814
I306
tp343
a(I814
I306
tp344
a(I815
I306
tp345
a(I816
I306
tp346
a(I818
I306
tp347
a(I819
I306
tp348
a(I820
I306
tp349
a(I821
I306
tp350
a(I821
I306
tp351
a(I821
I306
tp352
a(I822
I306
tp353
a(I823
I307
tp354
a(I824
I307
tp355
a(I825
I308
tp356
a(I826
I308
tp357
a(I827
I308
tp358
a(I829
I308
tp359
a(I829
I308
tp360
a(I831
I308
tp361
a(I832
I308
tp362
a(I832
I309
tp363
a(I835
I309
tp364
a(I836
I309
tp365
a(I838
I309
tp366
a(I839
I309
tp367
a(I840
I309
tp368
a(I842
I311
tp369
a(I843
I311
tp370
a(I843
I311
tp371
a(I845
I311
tp372
a(I846
I311
tp373
a(I847
I312
tp374
a(I847
I312
tp375
a(I848
I312
tp376
a(I849
I312
tp377
a(I850
I312
tp378
a(I851
I313
tp379
a(I853
I313
tp380
a(I853
I313
tp381
a(I854
I313
tp382
a(I856
I313
tp383
a(I857
I314
tp384
a(I860
I314
tp385
a(I860
I314
tp386
a(I862
I314
tp387
a(I863
I314
tp388
a(I864
I314
tp389
a(I865
I314
tp390
a(I866
I315
tp391
a(I867
I315
tp392
a(I867
I315
tp393
a(I868
I315
tp394
a(I869
I315
tp395
a(I870
I316
tp396
a(I870
I316
tp397
a(I871
I316
tp398
a(I871
I316
tp399
a(I872
I316
tp400
a(I872
I316
tp401
a(I873
I316
tp402
a(I873
I316
tp403
a(I874
I317
tp404
a(I875
I317
tp405
a(I875
I317
tp406
a(I876
I317
tp407
a(I877
I317
tp408
a(I878
I317
tp409
a(I879
I317
tp410
a(I880
I317
tp411
a(I880
I317
tp412
a(I881
I317
tp413
a(I882
I317
tp414
a(I882
I317
tp415
a(I884
I318
tp416
a(I884
I318
tp417
a(I885
I318
tp418
a(I885
I318
tp419
a(I886
I318
tp420
a(I887
I318
tp421
a(I888
I319
tp422
a(I888
I319
tp423
a(I889
I319
tp424
a(I890
I319
tp425
a(I890
I319
tp426
a(I892
I320
tp427
a(I892
I320
tp428
a(I893
I320
tp429
a(I893
I321
tp430
a(I894
I321
tp431
a(I894
I321
tp432
a(I895
I322
tp433
a(I896
I322
tp434
a(I897
I322
tp435
a(I897
I323
tp436
a(I898
I324
tp437
a(I899
I324
tp438
a(I899
I324
tp439
a(I900
I325
tp440
a(I901
I325
tp441
a(I901
I325
tp442
a(I902
I326
tp443
a(I902
I326
tp444
a(I902
I327
tp445
a(I903
I327
tp446
a(I903
I328
tp447
a(I904
I328
tp448
a(I904
I329
tp449
a(I904
I329
tp450
a(I904
I329
tp451
a(I904
I330
tp452
a(I904
I331
tp453
a(I904
I331
tp454
a(I904
I332
tp455
a(I905
I332
tp456
a(I905
I333
tp457
a(I905
I333
tp458
a(I905
I334
tp459
a(I905
I335
tp460
a(I905
I335
tp461
a(I905
I336
tp462
a(I905
I336
tp463
a(I906
I337
tp464
a(I906
I337
tp465
a(I906
I338
tp466
a(I907
I338
tp467
a(I907
I339
tp468
a(I907
I340
tp469
a(I907
I340
tp470
a(I907
I341
tp471
a(I907
I341
tp472
a(I907
I342
tp473
a(I907
I343
tp474
a(I907
I343
tp475
a(I907
I344
tp476
a(I908
I345
tp477
a(I908
I345
tp478
a(I908
I346
tp479
a(I908
I346
tp480
a(I908
I347
tp481
a(I908
I348
tp482
a(I908
I348
tp483
a(I908
I349
tp484
a(I908
I350
tp485
a(I908
I351
tp486
a(I908
I351
tp487
a(I908
I352
tp488
a(I908
I353
tp489
a(I908
I353
tp490
a(I908
I354
tp491
a(I908
I354
tp492
a(I908
I355
tp493
a(I908
I355
tp494
a(I908
I356
tp495
a(I908
I357
tp496
a(I908
I357
tp497
a(I908
I358
tp498
a(I908
I358
tp499
a(I908
I359
tp500
a(I908
I360
tp501
a(I907
I361
tp502
a(I907
I361
tp503
a(I907
I362
tp504
a(I906
I362
tp505
a(I906
I363
tp506
a(I906
I363
tp507
a(I905
I364
tp508
a(I905
I365
tp509
a(I904
I365
tp510
a(I904
I366
tp511
a(I904
I367
tp512
a(I903
I368
tp513
a(I903
I368
tp514
a(I902
I369
tp515
a(I902
I369
tp516
a(I902
I370
tp517
a(I902
I371
tp518
a(I902
I372
tp519
a(I902
I373
tp520
a(I902
I373
tp521
a(I902
I374
tp522
a(I902
I375
tp523
a(I902
I375
tp524
a(I902
I375
tp525
a(I903
I375
tp526
a(I904
I375
tp527
a(I904
I375
tp528
a(I905
I375
tp529
a(I905
I374
tp530
a(I906
I374
tp531
a(I907
I373
tp532
a(I907
I373
tp533
a(I908
I372
tp534
a(I908
I372
tp535
a(I909
I372
tp536
a(I909
I372
tp537
a(I910
I371
tp538
a(I911
I371
tp539
a(I911
I371
tp540
a(I912
I370
tp541
a(I913
I370
tp542
a(I913
I370
tp543
a(I913
I369
tp544
a(I914
I369
tp545
a(I914
I369
tp546
a(I915
I368
tp547
a(I916
I368
tp548
a(I916
I368
tp549
a(I917
I368
tp550
a(I918
I367
tp551
a(I919
I367
tp552
a(I919
I367
tp553
a(I920
I367
tp554
a(I922
I367
tp555
a(I922
I367
tp556
a(I922
I368
tp557
a(I922
I368
tp558
a(I923
I370
tp559
a(I923
I371
tp560
a(I924
I372
tp561
a(I924
I373
tp562
a(I924
I373
tp563
a(I924
I373
tp564
a(I924
I374
tp565
a(I924
I375
tp566
a(I924
I375
tp567
a(I925
I376
tp568
a(I925
I377
tp569
a(I925
I377
tp570
a(I925
I378
tp571
a(I925
I378
tp572
a(I925
I379
tp573
a(I925
I380
tp574
a(I925
I381
tp575
a(I925
I382
tp576
a(I925
I383
tp577
a(I925
I383
tp578
a(I925
I384
tp579
a(I925
I385
tp580
a(I925
I385
tp581
a(I925
I386
tp582
a(I925
I387
tp583
a(I925
I387
tp584
a(I925
I388
tp585
a(I925
I388
tp586
a(I925
I389
tp587
a(I925
I390
tp588
a(I925
I390
tp589
a(I925
I390
tp590
a(I925
I391
tp591
a(I925
I392
tp592
a(I925
I392
tp593
a(I925
I394
tp594
a(I925
I395
tp595
a(I925
I396
tp596
a(I925
I397
tp597
a(I925
I397
tp598
a(I925
I398
tp599
a(I925
I399
tp600
a(I924
I400
tp601
a(I924
I401
tp602
a(I924
I402
tp603
a(I924
I403
tp604
a(I924
I403
tp605
a(I923
I404
tp606
a(I923
I404
tp607
a(I923
I405
tp608
a(I923
I405
tp609
a(I923
I405
tp610
a(I922
I406
tp611
a(I922
I407
tp612
a(I922
I408
tp613
a(I922
I409
tp614
a(I921
I410
tp615
a(I921
I411
tp616
a(I921
I412
tp617
a(I921
I412
tp618
a(I921
I413
tp619
a(I920
I414
tp620
a(I920
I414
tp621
a(I919
I415
tp622
a(I919
I416
tp623
a(I918
I417
tp624
a(I918
I418
tp625
a(I918
I418
tp626
a(I917
I420
tp627
a(I917
I420
tp628
a(I917
I421
tp629
a(I917
I422
tp630
a(I916
I422
tp631
a(I916
I423
tp632
a(I916
I423
tp633
a(I916
I424
tp634
a(I916
I425
tp635
a(I914
I426
tp636
a(I914
I427
tp637
a(I914
I427
tp638
a(I913
I428
tp639
a(I913
I428
tp640
a(I913
I430
tp641
a(I912
I431
tp642
a(I912
I431
tp643
a(I912
I432
tp644
a(I911
I432
tp645
a(I911
I433
tp646
a(I911
I433
tp647
a(I910
I434
tp648
a(I910
I434
tp649
a(I910
I435
tp650
a(I909
I436
tp651
a(I909
I436
tp652
a(I909
I437
tp653
a(I908
I438
tp654
a(I907
I440
tp655
a(I906
I441
tp656
a(I906
I441
tp657
a(I906
I442
tp658
a(I906
I442
tp659
a(I906
I442
tp660
a(I905
I443
tp661
a(I905
I444
tp662
a(I904
I444
tp663
a(I904
I445
tp664
a(I904
I445
tp665
a(I903
I446
tp666
a(I903
I447
tp667
a(I902
I448
tp668
a(I902
I448
tp669
a(I901
I450
tp670
a(I901
I450
tp671
a(I900
I451
tp672
a(I900
I453
tp673
a(I899
I453
tp674
a(I899
I453
tp675
a(I899
I454
tp676
a(I899
I454
tp677
a(I898
I455
tp678
a(I897
I456
tp679
a(I897
I456
tp680
a(I897
I457
tp681
a(I896
I457
tp682
a(I896
I458
tp683
a(I895
I459
tp684
a(I895
I459
tp685
a(I894
I460
tp686
a(I894
I460
tp687
a(I893
I461
tp688
a(I893
I462
tp689
a(I893
I462
tp690
a(I892
I463
tp691
a(I892
I463
tp692
a(I891
I463
tp693
a(I890
I465
tp694
a(I890
I465
tp695
a(I889
I465
tp696
aI0
a(I889
I465
tp697
a(I887
I466
tp698
a(I887
I466
tp699
a(I886
I466
tp700
a(I886
I467
tp701
a(I884
I468
tp702
a(I884
I468
tp703
a(I882
I470
tp704
a(I879
I471
tp705
a(I874
I473
tp706
a(I867
I475
tp707
a(I860
I479
tp708
a(I850
I480
tp709
a(I841
I483
tp710
a(I832
I487
tp711
a(I825
I488
tp712
a(I818
I488
tp713
a(I812
I488
tp714
a(I807
I488
tp715
a(I803
I489
tp716
a(I802
I489
tp717
a(I801
I489
tp718
a(I800
I489
tp719
a(I800
I489
tp720
a(I799
I489
tp721
a(I797
I488
tp722
a(I796
I487
tp723
a(I792
I485
tp724
a(I789
I483
tp725
a(I784
I480
tp726
a(I779
I478
tp727
a(I774
I476
tp728
a(I769
I473
tp729
a(I765
I471
tp730
a(I762
I468
tp731
a(I761
I467
tp732
a(I760
I465
tp733
a(I760
I465
tp734
a(I759
I463
tp735
a(I759
I463
tp736
a(I759
I461
tp737
a(I759
I460
tp738
a(I759
I459
tp739
a(I759
I457
tp740
a(I759
I454
tp741
a(I759
I453
tp742
a(I759
I451
tp743
a(I758
I449
tp744
a(I757
I447
tp745
a(I757
I447
tp746
a(I756
I446
tp747
a(I756
I444
tp748
a(I755
I443
tp749
a(I755
I442
tp750
a(I754
I442
tp751
a(I754
I441
tp752
a(I754
I441
tp753
a(I753
I440
tp754
a(I753
I440
tp755
a(I753
I439
tp756
a(I753
I438
tp757
a(I753
I437
tp758
a(I753
I437
tp759
a(I753
I436
tp760
a(I753
I436
tp761
a(I753
I434
tp762
a(I753
I434
tp763
a(I753
I432
tp764
a(I754
I431
tp765
a(I754
I430
tp766
a(I755
I428
tp767
a(I755
I427
tp768
a(I755
I427
tp769
a(I755
I426
tp770
a(I755
I425
tp771
a(I756
I424
tp772
a(I756
I424
tp773
a(I757
I423
tp774
a(I757
I423
tp775
a(I757
I423
tp776
aI1
a(I757
I423
tp777
a(I757
I423
tp778
a(I757
I423
tp779
a(I757
I424
tp780
a(I756
I424
tp781
a(I756
I425
tp782
a(I755
I426
tp783
a(I755
I426
tp784
a(I754
I427
tp785
a(I754
I427
tp786
a(I753
I428
tp787
a(I753
I428
tp788
a(I752
I428
tp789
a(I752
I429
tp790
a(I751
I429
tp791
a(I751
I430
tp792
a(I751
I430
tp793
a(I750
I430
tp794
a(I750
I431
tp795
a(I749
I431
tp796
a(I749
I432
tp797
a(I748
I432
tp798
a(I748
I432
tp799
a(I747
I432
tp800
a(I747
I433
tp801
a(I746
I433
tp802
a(I746
I434
tp803
a(I745
I434
tp804
a(I744
I435
tp805
a(I743
I435
tp806
a(I743
I435
tp807
a(I742
I436
tp808
a(I741
I436
tp809
a(I741
I437
tp810
a(I740
I437
tp811
a(I740
I437
tp812
a(I739
I437
tp813
a(I739
I437
tp814
a(I739
I437
tp815
a(I738
I437
tp816
a(I738
I438
tp817
a(I737
I438
tp818
a(I737
I438
tp819
a(I736
I439
tp820
a(I736
I439
tp821
a(I735
I439
tp822
a(I734
I439
tp823
a(I733
I440
tp824
a(I733
I440
tp825
a(I732
I440
tp826
a(I731
I440
tp827
a(I730
I441
tp828
a(I730
I441
tp829
aI0
a(I730
I441
tp830
a(I730
I441
tp831
a(I734
I441
tp832
a(I741
I441
tp833
a(I750
I441
tp834
a(I765
I441
tp835
a(I783
I441
tp836
a(I801
I442
tp837
a(I818
I444
tp838
a(I833
I447
tp839
a(I845
I448
tp840
a(I854
I449
tp841
a(I861
I450
tp842
a(I865
I450
tp843
a(I867
I450
tp844
a(I869
I450
tp845
a(I869
I450
tp846
a(I869
I450
tp847
a(I871
I450
tp848
a(I871
I450
tp849
a(I872
I450
tp850
a(I872
I450
tp851
a(I873
I450
tp852
a(I874
I450
tp853
a(I874
I450
tp854
a(I875
I450
tp855
a(I876
I450
tp856
a(I878
I450
tp857
a(I879
I450
tp858
a(I880
I450
tp859
a(I880
I450
tp860
a(I881
I450
tp861
a(I882
I450
tp862
a(I882
I450
tp863
a(I882
I450
tp864
a(I882
I449
tp865
a(I882
I448
tp866
a(I882
I447
tp867
a(I882
I447
tp868
a(I882
I446
tp869
a(I881
I445
tp870
a(I881
I445
tp871
a(I881
I444
tp872
a(I880
I443
tp873
a(I880
I443
tp874
a(I879
I442
tp875
a(I878
I441
tp876
a(I877
I441
tp877
a(I877
I440
tp878
a(I876
I439
tp879
a(I875
I439
tp880
a(I875
I438
tp881
aI1
a(I875
I438
tp882
a(I875
I438
tp883
a(I875
I439
tp884
a(I875
I440
tp885
a(I875
I441
tp886
a(I875
I442
tp887
a(I875
I443
tp888
a(I876
I443
tp889
a(I876
I444
tp890
a(I877
I445
tp891
a(I877
I446
tp892
a(I877
I447
tp893
a(I877
I447
tp894
a(I878
I448
tp895
a(I878
I449
tp896
a(I879
I450
tp897
a(I879
I451
tp898
a(I880
I451
tp899
a(I880
I452
tp900
a(I880
I452
tp901
a(I881
I453
tp902
a(I881
I453
tp903
a(I882
I454
tp904
a(I882
I455
tp905
a(I883
I455
tp906
a(I883
I456
tp907
a(I883
I456
tp908
a(I884
I456
tp909
a(I884
I457
tp910
a(I885
I457
tp911
a(I885
I458
tp912
a(I886
I458
tp913
a(I886
I459
tp914
a(I886
I460
tp915
a(I887
I460
tp916
a(I887
I461
tp917
aI0
a(I887
I461
tp918
a(I881
I461
tp919
a(I872
I460
tp920
a(I861
I459
tp921
a(I849
I458
tp922
a(I837
I458
tp923
a(I825
I458
tp924
a(I815
I457
tp925
a(I805
I455
tp926
a(I797
I453
tp927
a(I790
I452
tp928
a(I784
I451
tp929
a(I780
I448
tp930
a(I779
I448
tp931
a(I778
I448
tp932
a(I778
I447
tp933
a(I777
I447
tp934
a(I776
I446
tp935
a(I775
I445
tp936
a(I774
I444
tp937
a(I774
I443
tp938
a(I773
I443
tp939
a(I773
I442
tp940
a(I773
I441
tp941
a(I773
I441
tp942
a(I772
I440
tp943
a(I772
I439
tp944
a(I772
I439
tp945
a(I772
I438
tp946
a(I772
I436
tp947
a(I772
I435
tp948
a(I772
I434
tp949
a(I772
I433
tp950
a(I771
I431
tp951
a(I771
I431
tp952
a(I770
I430
tp953
a(I770
I430
tp954
a(I768
I429
tp955
a(I766
I429
tp956
a(I765
I428
tp957
a(I764
I428
tp958
a(I763
I428
tp959
a(I762
I428
tp960
a(I762
I428
tp961
a(I761
I427
tp962
a(I761
I427
tp963
aI1
a(I760
I427
tp964
a(I760
I427
tp965
a(I760
I429
tp966
a(I760
I431
tp967
a(I761
I432
tp968
a(I761
I433
tp969
a(I762
I435
tp970
a(I762
I436
tp971
a(I763
I438
tp972
a(I763
I439
tp973
a(I763
I441
tp974
a(I763
I442
tp975
a(I763
I444
tp976
a(I763
I445
tp977
a(I763
I447
tp978
a(I764
I447
tp979
a(I764
I449
tp980
a(I764
I450
tp981
a(I765
I450
tp982
a(I765
I451
tp983
a(I765
I451
tp984
a(I765
I452
tp985
a(I765
I452
tp986
a(I766
I453
tp987
a(I766
I454
tp988
a(I766
I454
tp989
a(I767
I456
tp990
a(I767
I456
tp991
a(I767
I457
tp992
a(I767
I458
tp993
a(I767
I459
tp994
a(I768
I460
tp995
a(I768
I462
tp996
a(I768
I462
tp997
a(I768
I463
tp998
a(I769
I464
tp999
a(I769
I465
tp1000
a(I770
I466
tp1001
a(I771
I467
tp1002
a(I771
I468
tp1003
a(I771
I469
tp1004
a(I771
I469
tp1005
a(I772
I470
tp1006
a(I772
I470
tp1007
a(I772
I471
tp1008
a(I773
I472
tp1009
a(I773
I473
tp1010
a(I773
I473
tp1011
a(I774
I474
tp1012
a(I774
I475
tp1013
a(I774
I476
tp1014
a(I774
I477
tp1015
a(I775
I478
tp1016
a(I776
I478
tp1017
a(I776
I480
tp1018
a(I776
I481
tp1019
a(I777
I482
tp1020
a(I778
I483
tp1021
a(I778
I484
tp1022
a(I779
I485
tp1023
a(I780
I486
tp1024
a(I780
I487
tp1025
a(I780
I487
tp1026
a(I781
I488
tp1027
a(I781
I488
tp1028
a(I782
I489
tp1029
a(I783
I491
tp1030
a(I784
I492
tp1031
a(I785
I493
tp1032
a(I785
I494
tp1033
a(I786
I494
tp1034
a(I787
I496
tp1035
a(I787
I496
tp1036
a(I788
I497
tp1037
a(I789
I499
tp1038
a(I789
I499
tp1039
a(I790
I500
tp1040
a(I790
I500
tp1041
a(I791
I502
tp1042
a(I791
I502
tp1043
a(I791
I503
tp1044
a(I792
I503
tp1045
a(I792
I504
tp1046
a(I792
I504
tp1047
a(I793
I505
tp1048
a(I793
I506
tp1049
a(I793
I506
tp1050
a(I794
I507
tp1051
a(I794
I508
tp1052
a(I794
I508
tp1053
aI0
a(I796
I508
tp1054
a(I796
I508
tp1055
a(I799
I507
tp1056
a(I803
I504
tp1057
a(I807
I502
tp1058
a(I812
I499
tp1059
a(I820
I494
tp1060
a(I827
I490
tp1061
a(I834
I487
tp1062
a(I842
I483
tp1063
a(I853
I476
tp1064
a(I859
I471
tp1065
a(I866
I467
tp1066
a(I871
I463
tp1067
a(I877
I458
tp1068
a(I882
I455
tp1069
a(I883
I453
tp1070
a(I885
I452
tp1071
a(I886
I451
tp1072
a(I886
I450
tp1073
a(I886
I449
tp1074
a(I886
I449
tp1075
a(I887
I448
tp1076
a(I887
I447
tp1077
a(I887
I447
tp1078
a(I887
I446
tp1079
a(I887
I446
tp1080
a(I887
I445
tp1081
a(I887
I444
tp1082
a(I887
I444
tp1083
a(I887
I443
tp1084
a(I885
I441
tp1085
a(I885
I440
tp1086
a(I883
I440
tp1087
a(I882
I439
tp1088
a(I882
I438
tp1089
a(I881
I438
tp1090
a(I880
I438
tp1091
a(I880
I438
tp1092
a(I879
I438
tp1093
a(I878
I438
tp1094
a(I878
I439
tp1095
a(I878
I439
tp1096
a(I877
I439
tp1097
aI1
a(I877
I440
tp1098
a(I877
I440
tp1099
a(I877
I441
tp1100
a(I876
I442
tp1101
a(I876
I443
tp1102
a(I876
I444
tp1103
a(I876
I445
tp1104
a(I876
I447
tp1105
a(I876
I448
tp1106
a(I875
I449
tp1107
a(I875
I451
tp1108
a(I875
I452
tp1109
a(I874
I455
tp1110
a(I874
I457
tp1111
a(I874
I458
tp1112
a(I874
I459
tp1113
a(I873
I460
tp1114
a(I872
I462
tp1115
a(I872
I463
tp1116
a(I872
I464
tp1117
a(I871
I465
tp1118
a(I871
I467
tp1119
a(I871
I468
tp1120
a(I870
I469
tp1121
a(I869
I470
tp1122
a(I869
I471
tp1123
a(I869
I471
tp1124
a(I868
I472
tp1125
a(I868
I473
tp1126
a(I867
I475
tp1127
a(I866
I476
tp1128
a(I866
I477
tp1129
a(I866
I477
tp1130
a(I866
I478
tp1131
a(I865
I479
tp1132
a(I864
I481
tp1133
a(I864
I481
tp1134
a(I863
I482
tp1135
a(I863
I483
tp1136
a(I862
I484
tp1137
a(I861
I485
tp1138
a(I860
I487
tp1139
a(I859
I488
tp1140
a(I858
I488
tp1141
a(I857
I489
tp1142
a(I857
I490
tp1143
a(I856
I492
tp1144
a(I854
I492
tp1145
a(I853
I494
tp1146
a(I851
I496
tp1147
a(I850
I497
tp1148
a(I850
I497
tp1149
a(I849
I499
tp1150
a(I847
I500
tp1151
a(I846
I500
tp1152
a(I846
I501
tp1153
a(I845
I502
tp1154
a(I844
I502
tp1155
a(I843
I502
tp1156
a(I842
I502
tp1157
a(I842
I503
tp1158
a(I841
I503
tp1159
a(I840
I504
tp1160
a(I840
I504
tp1161
a(I839
I504
tp1162
a(I839
I505
tp1163
a(I838
I505
tp1164
a(I837
I505
tp1165
a(I837
I505
tp1166
a(I836
I506
tp1167
a(I836
I506
tp1168
a(I835
I506
tp1169
a(I834
I506
tp1170
a(I833
I507
tp1171
a(I833
I507
tp1172
a(I832
I507
tp1173
a(I831
I508
tp1174
a(I829
I508
tp1175
a(I829
I509
tp1176
a(I827
I509
tp1177
a(I827
I509
tp1178
a(I825
I509
tp1179
a(I825
I510
tp1180
a(I824
I510
tp1181
a(I823
I510
tp1182
a(I822
I510
tp1183
a(I820
I510
tp1184
a(I819
I512
tp1185
a(I818
I512
tp1186
a(I817
I512
tp1187
a(I816
I512
tp1188
a(I816
I512
tp1189
a(I815
I512
tp1190
a(I814
I512
tp1191
a(I814
I513
tp1192
a(I813
I513
tp1193
a(I812
I513
tp1194
a(I812
I513
tp1195
a(I811
I513
tp1196
a(I810
I513
tp1197
a(I809
I514
tp1198
a(I809
I514
tp1199
a(I808
I514
tp1200
a(I807
I514
tp1201
a(I807
I515
tp1202
a(I806
I515
tp1203
a(I806
I515
tp1204
a(I805
I515
tp1205
a(I804
I515
tp1206
a(I804
I515
tp1207
a(I804
I515
tp1208
a(I803
I515
tp1209
a(I802
I515
tp1210
a(I802
I515
tp1211
a(I801
I514
tp1212
a(I801
I513
tp1213
a(I801
I512
tp1214
a(I799
I510
tp1215
a(I799
I509
tp1216
a(I799
I508
tp1217
a(I799
I508
tp1218
a(I799
I507
tp1219
a(I798
I506
tp1220
a(I798
I505
tp1221
a(I798
I505
tp1222
a(I798
I504
tp1223
aI0
a(I799
I505
tp1224
a(I800
I505
tp1225
a(I801
I507
tp1226
a(I802
I508
tp1227
a(I803
I510
tp1228
a(I805
I511
tp1229
a(I806
I513
tp1230
a(I806
I514
tp1231
a(I808
I515
tp1232
a(I809
I517
tp1233
a(I811
I519
tp1234
a(I811
I520
tp1235
a(I814
I521
tp1236
a(I816
I522
tp1237
a(I817
I523
tp1238
a(I820
I525
tp1239
a(I822
I526
tp1240
a(I823
I526
tp1241
a(I823
I527
tp1242
a(I823
I527
tp1243
a(I823
I528
tp1244
a(I822
I529
tp1245
a(I821
I530
tp1246
a(I820
I531
tp1247
a(I819
I532
tp1248
a(I818
I533
tp1249
a(I817
I534
tp1250
a(I816
I536
tp1251
a(I815
I537
tp1252
a(I814
I539
tp1253
a(I813
I540
tp1254
a(I809
I542
tp1255
a(I806
I545
tp1256
a(I803
I547
tp1257
a(I798
I551
tp1258
a(I793
I555
tp1259
a(I788
I559
tp1260
a(I786
I560
tp1261
a(I783
I562
tp1262
a(I780
I563
tp1263
a(I778
I563
tp1264
a(I775
I563
tp1265
a(I771
I563
tp1266
a(I766
I561
tp1267
a(I761
I560
tp1268
a(I756
I556
tp1269
a(I750
I553
tp1270
a(I747
I552
tp1271
a(I743
I549
tp1272
a(I739
I548
tp1273
a(I736
I546
tp1274
a(I732
I543
tp1275
a(I730
I542
tp1276
a(I728
I541
tp1277
a(I727
I540
tp1278
a(I727
I539
tp1279
a(I727
I538
tp1280
a(I727
I536
tp1281
a(I727
I534
tp1282
a(I727
I534
tp1283
a(I727
I533
tp1284
a(I727
I532
tp1285
a(I727
I532
tp1286
a(I727
I531
tp1287
a(I727
I531
tp1288
a(I728
I531
tp1289
a(I728
I531
tp1290
a(I730
I531
tp1291
a(I731
I530
tp1292
a(I735
I529
tp1293
a(I737
I528
tp1294
a(I740
I528
tp1295
a(I741
I527
tp1296
a(I745
I526
tp1297
a(I748
I525
tp1298
a(I751
I524
tp1299
a(I754
I524
tp1300
a(I757
I524
tp1301
a(I759
I524
tp1302
a(I760
I524
tp1303
a(I762
I522
tp1304
a(I763
I522
tp1305
a(I765
I522
tp1306
a(I765
I522
tp1307
a(I766
I522
tp1308
a(I767
I521
tp1309
a(I767
I521
tp1310
a(I768
I520
tp1311
a(I769
I519
tp1312
a(I770
I519
tp1313
a(I771
I518
tp1314
a(I772
I516
tp1315
a(I773
I515
tp1316
a(I775
I514
tp1317
a(I775
I513
tp1318
a(I776
I512
tp1319
a(I777
I511
tp1320
a(I778
I509
tp1321
a(I778
I508
tp1322
a(I779
I504
tp1323
a(I780
I503
tp1324
a(I780
I501
tp1325
a(I781
I500
tp1326
a(I781
I499
tp1327
a(I782
I496
tp1328
a(I783
I494
tp1329
a(I783
I493
tp1330
a(I783
I492
tp1331
a(I783
I491
tp1332
a(I783
I490
tp1333
a(I784
I489
tp1334
a(I784
I488
tp1335
a(I784
I488
tp1336
a(I785
I488
tp1337
a(I789
I485
tp1338
a(I791
I480
tp1339
a(I795
I475
tp1340
a(I802
I468
tp1341
a(I807
I460
tp1342
a(I812
I453
tp1343
a(I816
I445
tp1344
a(I818
I437
tp1345
a(I819
I430
tp1346
a(I819
I423
tp1347
a(I819
I417
tp1348
a(I819
I412
tp1349
a(I819
I409
tp1350
a(I818
I408
tp1351
a(I818
I407
tp1352
a(I818
I406
tp1353
a(I817
I404
tp1354
a(I817
I403
tp1355
a(I816
I399
tp1356
a(I816
I397
tp1357
a(I816
I395
tp1358
a(I815
I392
tp1359
a(I815
I390
tp1360
a(I814
I389
tp1361
a(I814
I387
tp1362
a(I813
I387
tp1363
a(I813
I386
tp1364
a(I812
I387
tp1365
a(I812
I392
tp1366
a(I809
I400
tp1367
a(I805
I410
tp1368
a(I804
I422
tp1369
a(I798
I438
tp1370
a(I793
I454
tp1371
a(I789
I470
tp1372
a(I785
I483
tp1373
a(I784
I497
tp1374
a(I782
I508
tp1375
a(I780
I516
tp1376
a(I780
I524
tp1377
a(I778
I530
tp1378
a(I778
I535
tp1379
a(I778
I540
tp1380
a(I775
I544
tp1381
a(I775
I545
tp1382
a(I775
I547
tp1383
a(I775
I548
tp1384
a(I775
I548
tp1385
a(I775
I549
tp1386
a(I774
I549
tp1387
a(I774
I549
tp1388
a(I774
I547
tp1389
a(I774
I544
tp1390
a(I774
I542
tp1391
a(I774
I539
tp1392
a(I773
I535
tp1393
a(I772
I531
tp1394
a(I772
I527
tp1395
a(I772
I523
tp1396
a(I772
I519
tp1397
a(I771
I516
tp1398
a(I771
I514
tp1399
a(I771
I513
tp1400
a(I771
I512
tp1401
a(I771
I511
tp1402
a(I772
I510
tp1403
a(I775
I510
tp1404
a(I776
I510
tp1405
a(I777
I510
tp1406
a(I777
I510
tp1407
a(I778
I509
tp1408
a(I778
I508
tp1409
a(I779
I508
tp1410
a(I779
I507
tp1411
a(I780
I507
tp1412
a(I781
I505
tp1413
a(I781
I505
tp1414
a(I782
I505
tp1415
aI1
a(I781
I505
tp1416
a(I780
I507
tp1417
a(I779
I509
tp1418
a(I778
I512
tp1419
a(I776
I515
tp1420
a(I775
I518
tp1421
a(I773
I522
tp1422
a(I772
I523
tp1423
a(I772
I524
tp1424
a(I771
I525
tp1425
a(I769
I527
tp1426
a(I768
I528
tp1427
a(I766
I529
tp1428
a(I766
I530
tp1429
a(I765
I531
tp1430
a(I764
I531
tp1431
a(I763
I532
tp1432
a(I761
I532
tp1433
a(I761
I533
tp1434
aI0
a(I762
I533
tp1435
a(I764
I533
tp1436
a(I768
I533
tp1437
a(I775
I533
tp1438
a(I784
I533
tp1439
a(I794
I533
tp1440
a(I804
I533
tp1441
a(I812
I533
tp1442
a(I820
I533
tp1443
a(I825
I533
tp1444
a(I830
I533
tp1445
a(I832
I533
tp1446
a(I834
I532
tp1447
a(I835
I531
tp1448
a(I835
I531
tp1449
a(I835
I530
tp1450
a(I835
I530
tp1451
a(I836
I529
tp1452
a(I836
I528
tp1453
a(I837
I528
tp1454
a(I837
I528
tp1455
a(I837
I527
tp1456
a(I837
I526
tp1457
a(I837
I526
tp1458
a(I837
I525
tp1459
a(I837
I524
tp1460
a(I837
I524
tp1461
a(I837
I523
tp1462
a(I837
I522
tp1463
a(I837
I521
tp1464
a(I838
I520
tp1465
a(I838
I519
tp1466
a(I838
I519
tp1467
a(I838
I518
tp1468
a(I838
I518
tp1469
a(I838
I517
tp1470
a(I838
I516
tp1471
a(I838
I515
tp1472
a(I839
I515
tp1473
a(I839
I514
tp1474
a(I839
I513
tp1475
a(I839
I513
tp1476
a(I839
I512
tp1477
a(I839
I511
tp1478
a(I839
I511
tp1479
aI1
a(I839
I511
tp1480
a(I840
I513
tp1481
a(I840
I514
tp1482
a(I842
I516
tp1483
a(I842
I519
tp1484
a(I843
I521
tp1485
a(I844
I523
tp1486
a(I845
I524
tp1487
a(I846
I526
tp1488
a(I846
I527
tp1489
a(I847
I529
tp1490
a(I849
I532
tp1491
a(I849
I532
tp1492
a(I851
I535
tp1493
a(I851
I535
tp1494
a(I852
I536
tp1495
a(I852
I536
tp1496
a(I853
I537
tp1497
a(I854
I537
tp1498
aI0
a(I856
I537
tp1499
a(I859
I537
tp1500
a(I860
I537
tp1501
a(I862
I537
tp1502
a(I862
I538
tp1503
a(I862
I538
tp1504
a(I862
I539
tp1505
a(I862
I540
tp1506
a(I862
I542
tp1507
a(I861
I545
tp1508
a(I857
I550
tp1509
a(I853
I554
tp1510
a(I847
I557
tp1511
a(I840
I560
tp1512
a(I831
I564
tp1513
a(I822
I566
tp1514
a(I814
I568
tp1515
a(I804
I568
tp1516
a(I798
I569
tp1517
a(I793
I570
tp1518
a(I790
I570
tp1519
a(I788
I570
tp1520
a(I787
I570
tp1521
a(I786
I570
tp1522
a(I785
I570
tp1523
a(I785
I570
tp1524
a(I784
I570
tp1525
a(I782
I570
tp1526
a(I780
I569
tp1527
a(I776
I568
tp1528
a(I771
I567
tp1529
a(I767
I565
tp1530
a(I762
I564
tp1531
a(I756
I563
tp1532
a(I751
I560
tp1533
a(I749
I559
tp1534
a(I744
I558
tp1535
a(I741
I557
tp1536
a(I738
I556
tp1537
a(I736
I556
tp1538
a(I733
I554
tp1539
a(I731
I554
tp1540
a(I730
I554
tp1541
a(I730
I554
tp1542
a(I729
I553
tp1543
a(I729
I552
tp1544
a(I729
I551
tp1545
a(I730
I551
tp1546
a(I731
I550
tp1547
a(I731
I548
tp1548
a(I732
I547
tp1549
a(I733
I546
tp1550
a(I734
I544
tp1551
a(I734
I543
tp1552
a(I735
I542
tp1553
a(I735
I542
tp1554
a(I736
I542
tp1555
a(I737
I541
tp1556
a(I738
I541
tp1557
a(I739
I541
tp1558
a(I739
I541
tp1559
a(I740
I540
tp1560
a(I740
I540
tp1561
a(I741
I540
tp1562
a(I741
I540
tp1563
a(I742
I539
tp1564
a(I743
I539
tp1565
a(I744
I539
tp1566
a(I744
I538
tp1567
a(I744
I538
tp1568
a(I745
I537
tp1569
a(I745
I537
tp1570
a(I746
I536
tp1571
a(I746
I536
tp1572
a(I747
I536
tp1573
a(I748
I535
tp1574
a(I748
I535
tp1575
a(I749
I535
tp1576
a(I749
I535
tp1577
a(I750
I535
tp1578
a(I751
I534
tp1579
a(I752
I533
tp1580
a(I753
I533
tp1581
a(I753
I533
tp1582
aI1
a(I753
I533
tp1583
a(I753
I533
tp1584
a(I751
I533
tp1585
a(I749
I532
tp1586
a(I748
I532
tp1587
a(I744
I530
tp1588
a(I744
I530
tp1589
a(I742
I530
tp1590
a(I739
I530
tp1591
a(I737
I530
tp1592
a(I735
I530
tp1593
a(I732
I530
tp1594
a(I730
I530
tp1595
a(I729
I530
tp1596
a(I726
I530
tp1597
a(I725
I530
tp1598
a(I723
I530
tp1599
a(I720
I530
tp1600
a(I717
I530
tp1601
a(I714
I530
tp1602
a(I711
I530
tp1603
a(I707
I530
tp1604
a(I705
I530
tp1605
a(I704
I530
tp1606
a(I704
I530
tp1607
a(I703
I530
tp1608
a(I702
I530
tp1609
a(I701
I530
tp1610
aI0
a(I701
I530
tp1611
a(I704
I530
tp1612
a(I711
I530
tp1613
a(I722
I532
tp1614
a(I732
I532
tp1615
a(I744
I532
tp1616
a(I756
I532
tp1617
a(I770
I534
tp1618
a(I779
I535
tp1619
a(I788
I536
tp1620
a(I796
I536
tp1621
a(I800
I536
tp1622
a(I807
I538
tp1623
a(I811
I539
tp1624
a(I816
I540
tp1625
a(I819
I540
tp1626
a(I822
I540
tp1627
a(I825
I540
tp1628
a(I826
I540
tp1629
a(I827
I540
tp1630
a(I828
I540
tp1631
a(I830
I540
tp1632
a(I830
I540
tp1633
a(I830
I540
tp1634
a(I831
I540
tp1635
a(I832
I540
tp1636
a(I833
I540
tp1637
a(I834
I540
tp1638
a(I835
I539
tp1639
a(I835
I539
tp1640
a(I836
I538
tp1641
a(I837
I537
tp1642
a(I837
I537
tp1643
a(I838
I537
tp1644
a(I839
I537
tp1645
a(I841
I537
tp1646
a(I843
I537
tp1647
a(I844
I537
tp1648
a(I845
I537
tp1649
a(I846
I537
tp1650
a(I846
I537
tp1651
a(I847
I537
tp1652
a(I848
I537
tp1653
a(I848
I537
tp1654
a(I849
I537
tp1655
a(I849
I537
tp1656
a(I849
I537
tp1657
a(I849
I538
tp1658
a(I849
I538
tp1659
a(I850
I538
tp1660
a(I850
I539
tp1661
a(I851
I539
tp1662
a(I851
I540
tp1663
aI1
a(I852
I540
tp1664
a(I853
I540
tp1665
a(I854
I541
tp1666
a(I856
I542
tp1667
a(I859
I543
tp1668
a(I862
I543
tp1669
a(I865
I544
tp1670
a(I870
I546
tp1671
a(I874
I546
tp1672
a(I879
I549
tp1673
a(I888
I551
tp1674
a(I895
I553
tp1675
a(I904
I555
tp1676
a(I912
I558
tp1677
a(I919
I559
tp1678
a(I927
I561
tp1679
a(I931
I562
tp1680
a(I937
I563
tp1681
a(I939
I563
tp1682
a(I942
I564
tp1683
a(I943
I564
tp1684
a(I944
I565
tp1685
a(I944
I565
tp1686
a(I945
I566
tp1687
a(I946
I566
tp1688
a(I947
I566
tp1689
a(I948
I566
tp1690
a(I948
I566
tp1691
a(I950
I567
tp1692
a(I950
I567
tp1693
a(I951
I568
tp1694
a(I951
I568
tp1695
a(I952
I568
tp1696
a(I953
I569
tp1697
a(I954
I569
tp1698
a(I954
I569
tp1699
a(I955
I569
tp1700
aI0
a(I955
I570
tp1701
a(I951
I570
tp1702
a(I945
I570
tp1703
a(I935
I570
tp1704
a(I922
I570
tp1705
a(I898
I570
tp1706
a(I871
I570
tp1707
a(I853
I570
tp1708
a(I835
I570
tp1709
a(I819
I570
tp1710
a(I806
I570
tp1711
a(I794
I570
tp1712
a(I784
I570
tp1713
a(I775
I569
tp1714
a(I767
I568
tp1715
a(I760
I566
tp1716
a(I754
I566
tp1717
a(I751
I566
tp1718
a(I750
I566
tp1719
a(I749
I566
tp1720
a(I748
I565
tp1721
a(I748
I564
tp1722
a(I747
I563
tp1723
a(I746
I563
tp1724
a(I745
I562
tp1725
a(I743
I562
tp1726
a(I739
I560
tp1727
a(I734
I559
tp1728
a(I730
I558
tp1729
a(I725
I556
tp1730
a(I723
I556
tp1731
a(I721
I556
tp1732
a(I721
I555
tp1733
a(I720
I554
tp1734
a(I720
I553
tp1735
a(I720
I551
tp1736
a(I720
I550
tp1737
a(I718
I548
tp1738
a(I717
I547
tp1739
a(I717
I547
tp1740
a(I716
I547
tp1741
a(I715
I547
tp1742
a(I714
I546
tp1743
a(I713
I546
tp1744
a(I711
I546
tp1745
a(I709
I545
tp1746
a(I708
I545
tp1747
a(I708
I545
tp1748
a(I707
I544
tp1749
a(I705
I542
tp1750
a(I704
I542
tp1751
a(I703
I541
tp1752
a(I702
I541
tp1753
a(I702
I541
tp1754
a(I701
I540
tp1755
a(I701
I539
tp1756
a(I701
I539
tp1757
a(I701
I538
tp1758
a(I701
I537
tp1759
a(I701
I537
tp1760
a(I701
I535
tp1761
a(I701
I534
tp1762
aI1
a(I701
I535
tp1763
a(I701
I542
tp1764
a(I701
I551
tp1765
a(I701
I559
tp1766
a(I701
I567
tp1767
a(I701
I573
tp1768
a(I701
I580
tp1769
a(I701
I586
tp1770
a(I702
I594
tp1771
a(I703
I599
tp1772
a(I704
I604
tp1773
a(I705
I608
tp1774
a(I707
I612
tp1775
a(I708
I616
tp1776
a(I708
I619
tp1777
a(I710
I623
tp1778
a(I710
I625
tp1779
a(I710
I626
tp1780
a(I710
I628
tp1781
a(I711
I632
tp1782
a(I711
I634
tp1783
a(I712
I637
tp1784
a(I713
I643
tp1785
a(I713
I645
tp1786
a(I714
I647
tp1787
a(I714
I649
tp1788
a(I715
I652
tp1789
a(I715
I652
tp1790
a(I715
I653
tp1791
a(I715
I654
tp1792
a(I715
I654
tp1793
a(I715
I655
tp1794
a(I715
I655
tp1795
a(I715
I656
tp1796
a(I715
I657
tp1797
aI0
a(I715
I657
tp1798
a(I715
I657
tp1799
a(I715
I656
tp1800
a(I717
I654
tp1801
a(I718
I652
tp1802
a(I720
I649
tp1803
a(I724
I645
tp1804
a(I729
I642
tp1805
a(I737
I635
tp1806
a(I744
I631
tp1807
a(I756
I625
tp1808
a(I770
I620
tp1809
a(I789
I612
tp1810
a(I811
I607
tp1811
a(I833
I601
tp1812
a(I858
I594
tp1813
a(I878
I589
tp1814
a(I892
I588
tp1815
a(I903
I586
tp1816
a(I909
I586
tp1817
a(I912
I585
tp1818
a(I914
I584
tp1819
a(I914
I584
tp1820
a(I915
I584
tp1821
a(I915
I584
tp1822
a(I916
I584
tp1823
a(I917
I584
tp1824
a(I917
I584
tp1825
a(I917
I584
tp1826
a(I918
I583
tp1827
a(I919
I583
tp1828
a(I920
I583
tp1829
a(I922
I582
tp1830
a(I923
I581
tp1831
a(I923
I581
tp1832
a(I924
I580
tp1833
a(I923
I580
tp1834
a(I921
I580
tp1835
a(I917
I580
tp1836
a(I913
I580
tp1837
a(I910
I581
tp1838
a(I907
I581
tp1839
a(I905
I582
tp1840
a(I903
I582
tp1841
a(I900
I583
tp1842
a(I898
I583
tp1843
a(I894
I585
tp1844
a(I888
I586
tp1845
a(I881
I589
tp1846
a(I872
I591
tp1847
a(I861
I595
tp1848
a(I850
I596
tp1849
a(I840
I601
tp1850
a(I830
I606
tp1851
a(I822
I608
tp1852
a(I817
I610
tp1853
a(I816
I611
tp1854
a(I815
I611
tp1855
a(I814
I612
tp1856
a(I814
I614
tp1857
a(I814
I614
tp1858
a(I813
I614
tp1859
a(I813
I616
tp1860
a(I813
I616
tp1861
a(I813
I616
tp1862
a(I812
I616
tp1863
a(I812
I616
tp1864
a(I811
I616
tp1865
a(I811
I617
tp1866
a(I810
I617
tp1867
a(I810
I617
tp1868
a(I810
I618
tp1869
a(I810
I619
tp1870
a(I810
I619
tp1871
a(I811
I620
tp1872
a(I812
I621
tp1873
a(I815
I622
tp1874
a(I820
I622
tp1875
a(I828
I623
tp1876
a(I837
I625
tp1877
a(I848
I626
tp1878
a(I859
I626
tp1879
a(I869
I626
tp1880
a(I878
I626
tp1881
a(I884
I626
tp1882
a(I889
I626
tp1883
a(I893
I625
tp1884
a(I897
I624
tp1885
a(I902
I622
tp1886
a(I905
I621
tp1887
a(I909
I619
tp1888
a(I912
I617
tp1889
a(I914
I617
tp1890
a(I916
I615
tp1891
a(I917
I613
tp1892
a(I918
I610
tp1893
a(I918
I609
tp1894
a(I918
I608
tp1895
a(I918
I607
tp1896
a(I918
I606
tp1897
a(I918
I605
tp1898
a(I918
I604
tp1899
a(I918
I604
tp1900
a(I918
I603
tp1901
a(I918
I602
tp1902
a(I918
I602
tp1903
a(I918
I601
tp1904
a(I918
I599
tp1905
a(I918
I596
tp1906
a(I918
I595
tp1907
a(I918
I594
tp1908
a(I918
I593
tp1909
a(I918
I592
tp1910
a(I918
I591
tp1911
a(I919
I590
tp1912
a(I919
I590
tp1913
a(I920
I589
tp1914
a(I920
I587
tp1915
a(I921
I586
tp1916
a(I923
I584
tp1917
a(I923
I584
tp1918
a(I924
I582
tp1919
a(I925
I581
tp1920
a(I926
I580
tp1921
a(I927
I579
tp1922
a(I927
I578
tp1923
a(I928
I578
tp1924
a(I929
I577
tp1925
a(I930
I576
tp1926
a(I931
I576
tp1927
a(I931
I575
tp1928
a(I932
I575
tp1929
a(I933
I574
tp1930
a(I934
I573
tp1931
a(I936
I572
tp1932
a(I937
I572
tp1933
a(I937
I572
tp1934
a(I938
I572
tp1935
a(I938
I572
tp1936
a(I936
I572
tp1937
a(I933
I572
tp1938
a(I928
I572
tp1939
a(I920
I575
tp1940
a(I911
I580
tp1941
a(I901
I586
tp1942
a(I885
I595
tp1943
a(I866
I604
tp1944
a(I850
I611
tp1945
a(I829
I618
tp1946
a(I808
I627
tp1947
a(I791
I630
tp1948
a(I775
I635
tp1949
a(I766
I638
tp1950
a(I759
I639
tp1951
a(I757
I639
tp1952
a(I756
I639
tp1953
a(I756
I639
tp1954
a(I755
I639
tp1955
a(I750
I639
tp1956
a(I745
I639
tp1957
a(I738
I639
tp1958
a(I731
I638
tp1959
a(I725
I637
tp1960
a(I721
I636
tp1961
a(I718
I636
tp1962
a(I717
I635
tp1963
a(I717
I635
tp1964
a(I716
I634
tp1965
a(I715
I633
tp1966
a(I715
I632
tp1967
a(I713
I629
tp1968
a(I712
I628
tp1969
a(I711
I626
tp1970
a(I710
I624
tp1971
a(I708
I622
tp1972
a(I707
I619
tp1973
a(I706
I617
tp1974
a(I705
I616
tp1975
a(I705
I613
tp1976
a(I704
I611
tp1977
a(I702
I607
tp1978
a(I702
I605
tp1979
a(I701
I603
tp1980
a(I700
I599
tp1981
a(I700
I595
tp1982
a(I698
I593
tp1983
a(I698
I590
tp1984
a(I698
I589
tp1985
a(I698
I587
tp1986
a(I698
I586
tp1987
a(I698
I585
tp1988
a(I698
I584
tp1989
a(I698
I583
tp1990
a(I698
I582
tp1991
a(I698
I580
tp1992
a(I698
I579
tp1993
a(I698
I576
tp1994
a(I698
I575
tp1995
a(I698
I573
tp1996
a(I698
I571
tp1997
a(I698
I569
tp1998
a(I698
I568
tp1999
a(I698
I565
tp2000
a(I698
I564
tp2001
a(I698
I562
tp2002
a(I698
I561
tp2003
a(I698
I559
tp2004
a(I698
I558
tp2005
a(I698
I557
tp2006
a(I698
I556
tp2007
a(I698
I556
tp2008
a(I698
I555
tp2009
a(I698
I554
tp2010
a(I698
I554
tp2011
a(I698
I553
tp2012
aI1
a(I695
I556
tp2013
a(I691
I563
tp2014
a(I686
I571
tp2015
a(I681
I581
tp2016
a(I675
I590
tp2017
a(I667
I601
tp2018
a(I660
I612
tp2019
a(I656
I622
tp2020
a(I650
I631
tp2021
a(I645
I639
tp2022
a(I638
I647
tp2023
a(I635
I652
tp2024
a(I632
I658
tp2025
a(I630
I660
tp2026
a(I629
I661
tp2027
a(I629
I662
tp2028
a(I628
I662
tp2029
aI0
a(I628
I662
tp2030
a(I628
I662
tp2031
a(I629
I662
tp2032
a(I630
I661
tp2033
a(I630
I659
tp2034
a(I631
I658
tp2035
a(I632
I656
tp2036
a(I633
I655
tp2037
a(I635
I653
tp2038
a(I638
I651
tp2039
a(I644
I650
tp2040
a(I649
I647
tp2041
a(I658
I645
tp2042
a(I668
I644
tp2043
a(I681
I641
tp2044
a(I694
I639
tp2045
a(I709
I634
tp2046
a(I720
I632
tp2047
a(I727
I629
tp2048
a(I732
I627
tp2049
a(I735
I625
tp2050
a(I737
I625
tp2051
a(I737
I624
tp2052
a(I737
I624
tp2053
a(I737
I624
tp2054
a(I735
I624
tp2055
a(I734
I624
tp2056
a(I733
I623
tp2057
a(I732
I623
tp2058
a(I732
I623
tp2059
a(I733
I622
tp2060
a(I738
I621
tp2061
a(I743
I620
tp2062
a(I753
I619
tp2063
a(I766
I616
tp2064
a(I779
I616
tp2065
a(I795
I616
tp2066
a(I811
I616
tp2067
a(I829
I616
tp2068
a(I842
I616
tp2069
a(I853
I616
tp2070
a(I861
I616
tp2071
a(I865
I616
tp2072
a(I869
I615
tp2073
a(I870
I615
tp2074
a(I870
I615
tp2075
a(I871
I615
tp2076
a(I872
I614
tp2077
a(I873
I614
tp2078
a(I874
I613
tp2079
a(I876
I613
tp2080
a(I878
I613
tp2081
a(I879
I611
tp2082
a(I882
I609
tp2083
a(I883
I609
tp2084
a(I885
I609
tp2085
a(I886
I608
tp2086
a(I889
I607
tp2087
a(I892
I606
tp2088
a(I896
I605
tp2089
a(I901
I603
tp2090
a(I906
I602
tp2091
a(I911
I601
tp2092
a(I916
I598
tp2093
a(I919
I598
tp2094
a(I922
I597
tp2095
a(I925
I596
tp2096
a(I925
I596
tp2097
a(I926
I596
tp2098
a(I927
I596
tp2099
a(I928
I596
tp2100
a(I930
I596
tp2101
a(I932
I596
tp2102
a(I933
I596
tp2103
a(I936
I596
tp2104
a(I937
I595
tp2105
a(I939
I595
tp2106
a(I942
I595
tp2107
a(I944
I595
tp2108
a(I946
I594
tp2109
a(I948
I593
tp2110
a(I950
I593
tp2111
a(I952
I592
tp2112
a(I952
I592
tp2113
a(I954
I592
tp2114
a(I955
I591
tp2115
a(I955
I591
tp2116
a(I957
I590
tp2117
a(I957
I590
tp2118
a(I957
I590
tp2119
a(I957
I589
tp2120
a(I957
I588
tp2121
a(I957
I587
tp2122
a(I957
I587
tp2123
a(I955
I586
tp2124
a(I955
I586
tp2125
a(I953
I585
tp2126
a(I952
I584
tp2127
a(I951
I583
tp2128
a(I949
I582
tp2129
a(I947
I581
tp2130
a(I945
I581
tp2131
a(I943
I581
tp2132
a(I942
I580
tp2133
a(I942
I580
tp2134
a(I942
I579
tp2135
a(I942
I579
tp2136
a(I943
I578
tp2137
a(I944
I578
tp2138
a(I945
I578
tp2139
a(I946
I577
tp2140
a(I948
I576
tp2141
a(I949
I575
tp2142
a(I950
I575
tp2143
a(I950
I575
tp2144
a(I951
I575
tp2145
a(I952
I574
tp2146
a(I953
I574
tp2147
a(I954
I573
tp2148
a(I956
I573
tp2149
aI1
a(I956
I573
tp2150
a(I954
I573
tp2151
a(I951
I573
tp2152
a(I947
I574
tp2153
a(I942
I575
tp2154
a(I937
I579
tp2155
a(I931
I581
tp2156
a(I927
I584
tp2157
a(I922
I587
tp2158
a(I912
I592
tp2159
a(I905
I597
tp2160
a(I896
I603
tp2161
a(I887
I608
tp2162
a(I877
I613
tp2163
a(I866
I619
tp2164
a(I858
I623
tp2165
a(I852
I626
tp2166
a(I848
I628
tp2167
a(I844
I631
tp2168
a(I843
I631
tp2169
a(I842
I632
tp2170
a(I842
I632
tp2171
a(I841
I632
tp2172
a(I840
I633
tp2173
a(I840
I634
tp2174
a(I839
I634
tp2175
a(I838
I635
tp2176
a(I838
I636
tp2177
a(I837
I636
tp2178
a(I837
I637
tp2179
a(I836
I637
tp2180
a(I835
I638
tp2181
a(I835
I639
tp2182
a(I834
I639
tp2183
a(I833
I641
tp2184
a(I833
I641
tp2185
a(I832
I642
tp2186
a(I832
I642
tp2187
a(I831
I643
tp2188
a(I831
I644
tp2189
a(I830
I646
tp2190
a(I829
I647
tp2191
a(I828
I647
tp2192
a(I827
I648
tp2193
a(I827
I649
tp2194
aI0
a(I827
I649
tp2195
a(I827
I649
tp2196
a(I828
I648
tp2197
a(I831
I645
tp2198
a(I834
I644
tp2199
a(I837
I642
tp2200
a(I843
I640
tp2201
a(I848
I638
tp2202
a(I853
I636
tp2203
a(I857
I634
tp2204
a(I860
I632
tp2205
a(I862
I630
tp2206
a(I864
I630
tp2207
a(I864
I629
tp2208
a(I867
I628
tp2209
a(I868
I627
tp2210
a(I870
I626
tp2211
a(I871
I625
tp2212
a(I873
I625
tp2213
a(I875
I623
tp2214
a(I877
I622
tp2215
a(I877
I622
tp2216
a(I878
I622
tp2217
a(I879
I621
tp2218
a(I880
I621
tp2219
a(I880
I621
tp2220
a(I881
I620
tp2221
a(I883
I619
tp2222
a(I884
I618
tp2223
a(I886
I618
tp2224
a(I889
I618
tp2225
a(I890
I617
tp2226
a(I892
I616
tp2227
a(I892
I616
tp2228
a(I892
I616
tp2229
a(I894
I615
tp2230
a(I894
I615
tp2231
a(I894
I615
tp2232
a(I896
I614
tp2233
a(I897
I613
tp2234
a(I899
I613
tp2235
a(I901
I612
tp2236
a(I901
I612
tp2237
a(I904
I611
tp2238
a(I904
I611
tp2239
a(I904
I611
tp2240
a(I905
I611
tp2241
a(I905
I611
tp2242
a(I906
I610
tp2243
a(I906
I610
tp2244
a(I908
I609
tp2245
a(I908
I609
tp2246
a(I909
I608
tp2247
a(I909
I608
tp2248
a(I910
I607
tp2249
a(I911
I606
tp2250
a(I912
I605
tp2251
a(I913
I605
tp2252
a(I913
I604
tp2253
a(I914
I604
tp2254
a(I914
I603
tp2255
a(I915
I603
tp2256
a(I916
I602
tp2257
a(I916
I601
tp2258
a(I917
I601
tp2259
a(I917
I600
tp2260
a(I918
I600
tp2261
a(I919
I599
tp2262
a(I919
I598
tp2263
a(I920
I598
tp2264
a(I921
I598
tp2265
a(I921
I597
tp2266
a(I922
I597
tp2267
a(I922
I597
tp2268
a(I923
I596
tp2269
a(I923
I596
tp2270
a(I924
I595
tp2271
a(I925
I594
tp2272
a(I926
I593
tp2273
a(I926
I593
tp2274
a(I927
I593
tp2275
a(I928
I591
tp2276
a(I929
I591
tp2277
a(I930
I590
tp2278
a(I931
I590
tp2279
a(I931
I589
tp2280
a(I932
I589
tp2281
a(I932
I588
tp2282
a(I933
I588
tp2283
a(I933
I588
tp2284
a(I934
I587
tp2285
a(I934
I587
tp2286
a(I935
I586
tp2287
a(I936
I585
tp2288
a(I936
I585
tp2289
a(I937
I584
tp2290
a(I937
I584
tp2291
a(I938
I583
tp2292
a(I938
I583
tp2293
a(I939
I583
tp2294
a(I940
I582
tp2295
a(I940
I582
tp2296
a(I941
I581
tp2297
aI1
a(I941
I581
tp2298
a(I941
I585
tp2299
a(I941
I587
tp2300
a(I943
I591
tp2301
a(I944
I595
tp2302
a(I945
I600
tp2303
a(I948
I607
tp2304
a(I949
I612
tp2305
a(I950
I618
tp2306
a(I951
I625
tp2307
a(I952
I628
tp2308
a(I952
I634
tp2309
a(I953
I639
tp2310
a(I954
I644
tp2311
a(I955
I648
tp2312
a(I956
I651
tp2313
a(I957
I654
tp2314
a(I957
I656
tp2315
a(I957
I657
tp2316
a(I958
I658
tp2317
a(I958
I659
tp2318
a(I958
I659
tp2319
a(I959
I660
tp2320
a(I959
I661
tp2321
a(I959
I661
tp2322
aI0
a(I959
I662
tp2323
a(I955
I663
tp2324
a(I951
I666
tp2325
a(I945
I669
tp2326
a(I937
I674
tp2327
a(I929
I677
tp2328
a(I919
I683
tp2329
a(I907
I689
tp2330
a(I897
I694
tp2331
a(I888
I700
tp2332
a(I880
I704
tp2333
a(I874
I709
tp2334
a(I869
I712
tp2335
a(I865
I714
tp2336
a(I863
I715
tp2337
a(I863
I715
tp2338
a(I862
I716
tp2339
a(I862
I716
tp2340
a(I861
I717
tp2341
a(I861
I717
tp2342
a(I860
I718
tp2343
a(I859
I718
tp2344
a(I857
I719
tp2345
a(I855
I720
tp2346
a(I852
I722
tp2347
a(I850
I723
tp2348
a(I849
I723
tp2349
a(I848
I723
tp2350
a(I846
I723
tp2351
a(I845
I723
tp2352
a(I843
I723
tp2353
a(I843
I723
tp2354
a(I841
I723
tp2355
a(I841
I723
tp2356
a(I840
I723
tp2357
a(I839
I723
tp2358
a(I839
I723
tp2359
a(I838
I723
tp2360
a(I838
I723
tp2361
a(I837
I723
tp2362
a(I836
I725
tp2363
a(I835
I726
tp2364
a(I835
I727
tp2365
a(I834
I729
tp2366
a(I833
I731
tp2367
a(I833
I732
tp2368
a(I833
I732
tp2369
a(I833
I734
tp2370
a(I833
I736
tp2371
a(I835
I737
tp2372
a(I835
I737
tp2373
a(I836
I737
tp2374
a(I836
I737
tp2375
a(I834
I735
tp2376
a(I834
I731
tp2377
a(I834
I728
tp2378
a(I834
I724
tp2379
a(I834
I722
tp2380
a(I834
I719
tp2381
a(I834
I717
tp2382
a(I831
I712
tp2383
a(I823
I708
tp2384
a(I816
I705
tp2385
a(I809
I702
tp2386
a(I802
I699
tp2387
a(I796
I696
tp2388
a(I793
I695
tp2389
a(I790
I693
tp2390
a(I789
I693
tp2391
a(I788
I693
tp2392
a(I787
I692
tp2393
a(I787
I692
tp2394
a(I786
I692
tp2395
a(I785
I692
tp2396
a(I785
I691
tp2397
a(I785
I691
tp2398
a(I784
I690
tp2399
a(I784
I689
tp2400
a(I783
I688
tp2401
a(I783
I688
tp2402
a(I782
I687
tp2403
a(I781
I687
tp2404
a(I778
I686
tp2405
a(I776
I685
tp2406
a(I771
I685
tp2407
a(I767
I685
tp2408
a(I762
I685
tp2409
a(I759
I685
tp2410
a(I756
I685
tp2411
a(I755
I685
tp2412
a(I755
I685
tp2413
a(I753
I685
tp2414
a(I752
I685
tp2415
a(I750
I685
tp2416
a(I749
I685
tp2417
a(I747
I685
tp2418
a(I746
I685
tp2419
a(I745
I685
tp2420
a(I745
I685
tp2421
a(I744
I685
tp2422
a(I743
I685
tp2423
a(I742
I682
tp2424
a(I742
I680
tp2425
a(I740
I678
tp2426
a(I740
I675
tp2427
a(I738
I673
tp2428
a(I738
I673
tp2429
a(I738
I672
tp2430
a(I738
I671
tp2431
a(I737
I670
tp2432
a(I737
I670
tp2433
a(I736
I669
tp2434
a(I736
I669
tp2435
a(I736
I668
tp2436
a(I736
I666
tp2437
a(I735
I666
tp2438
a(I735
I666
tp2439
a(I735
I665
tp2440
a(I735
I664
tp2441
a(I735
I664
tp2442
a(I736
I663
tp2443
a(I739
I662
tp2444
a(I742
I662
tp2445
a(I745
I660
tp2446
a(I748
I660
tp2447
a(I751
I659
tp2448
a(I753
I658
tp2449
a(I757
I656
tp2450
a(I759
I656
tp2451
a(I760
I655
tp2452
a(I763
I653
tp2453
a(I765
I652
tp2454
a(I766
I652
tp2455
a(I769
I650
tp2456
a(I771
I650
tp2457
a(I771
I650
tp2458
a(I772
I649
tp2459
a(I773
I649
tp2460
a(I774
I649
tp2461
a(I775
I648
tp2462
a(I775
I647
tp2463
a(I776
I647
tp2464
a(I776
I646
tp2465
a(I777
I645
tp2466
a(I778
I645
tp2467
a(I778
I644
tp2468
a(I779
I644
tp2469
a(I780
I642
tp2470
a(I780
I642
tp2471
a(I781
I642
tp2472
a(I781
I641
tp2473
a(I782
I641
tp2474
a(I782
I640
tp2475
a(I782
I640
tp2476
a(I782
I639
tp2477
a(I783
I638
tp2478
a(I784
I638
tp2479
a(I784
I637
tp2480
a(I784
I637
tp2481
aI1
a(I784
I636
tp2482
a(I784
I636
tp2483
a(I782
I636
tp2484
a(I780
I636
tp2485
a(I778
I636
tp2486
a(I775
I636
tp2487
a(I770
I639
tp2488
a(I762
I640
tp2489
a(I757
I643
tp2490
a(I748
I645
tp2491
a(I744
I647
tp2492
a(I741
I648
tp2493
a(I735
I651
tp2494
a(I730
I652
tp2495
a(I728
I654
tp2496
a(I726
I654
tp2497
a(I722
I656
tp2498
a(I718
I658
tp2499
a(I715
I659
tp2500
a(I710
I661
tp2501
a(I707
I662
tp2502
a(I705
I662
tp2503
a(I704
I663
tp2504
a(I703
I663
tp2505
a(I703
I663
tp2506
aI0
a(I703
I663
tp2507
a(I705
I662
tp2508
a(I712
I661
tp2509
a(I721
I659
tp2510
a(I732
I657
tp2511
a(I744
I655
tp2512
a(I754
I653
tp2513
a(I764
I652
tp2514
a(I772
I651
tp2515
a(I777
I650
tp2516
a(I780
I648
tp2517
a(I781
I648
tp2518
a(I782
I648
tp2519
a(I783
I648
tp2520
a(I784
I648
tp2521
a(I785
I648
tp2522
a(I787
I648
tp2523
a(I788
I648
tp2524
a(I790
I647
tp2525
a(I791
I647
tp2526
a(I793
I646
tp2527
a(I794
I645
tp2528
a(I796
I645
tp2529
a(I796
I645
tp2530
a(I797
I645
tp2531
a(I798
I644
tp2532
a(I798
I644
tp2533
a(I798
I644
tp2534
a(I797
I644
tp2535
a(I797
I644
tp2536
a(I795
I644
tp2537
a(I794
I644
tp2538
a(I793
I644
tp2539
a(I792
I644
tp2540
a(I792
I644
tp2541
a(I792
I643
tp2542
a(I792
I643
tp2543
a(I792
I641
tp2544
a(I791
I641
tp2545
a(I791
I640
tp2546
a(I791
I640
tp2547
a(I791
I639
tp2548
aI1
a(I793
I641
tp2549
a(I795
I642
tp2550
a(I798
I644
tp2551
a(I799
I645
tp2552
a(I802
I646
tp2553
a(I806
I648
tp2554
a(I809
I649
tp2555
a(I811
I649
tp2556
a(I813
I651
tp2557
a(I814
I651
tp2558
a(I815
I652
tp2559
a(I817
I652
tp2560
a(I818
I652
tp2561
a(I818
I652
tp2562
a(I821
I652
tp2563
a(I823
I654
tp2564
a(I824
I654
tp2565
a(I828
I655
tp2566
a(I830
I655
tp2567
a(I832
I655
tp2568
a(I833
I657
tp2569
aI0
a(I833
I657
tp2570
a(I833
I659
tp2571
a(I832
I662
tp2572
a(I828
I667
tp2573
a(I825
I671
tp2574
a(I822
I677
tp2575
a(I819
I681
tp2576
a(I817
I684
tp2577
a(I814
I687
tp2578
a(I813
I689
tp2579
a(I812
I690
tp2580
a(I811
I690
tp2581
a(I811
I691
tp2582
a(I811
I691
tp2583
a(I810
I691
tp2584
a(I806
I691
tp2585
a(I805
I691
tp2586
a(I802
I691
tp2587
a(I799
I691
tp2588
a(I794
I691
tp2589
a(I791
I691
tp2590
a(I787
I691
tp2591
a(I782
I691
tp2592
a(I778
I691
tp2593
a(I774
I691
tp2594
a(I771
I691
tp2595
a(I768
I691
tp2596
a(I768
I691
tp2597
a(I767
I691
tp2598
a(I766
I691
tp2599
a(I765
I691
tp2600
a(I765
I691
tp2601
a(I765
I691
tp2602
a(I764
I691
tp2603
a(I763
I691
tp2604
a(I763
I691
tp2605
a(I761
I691
tp2606
a(I761
I691
tp2607
a(I760
I691
tp2608
a(I758
I691
tp2609
a(I757
I691
tp2610
a(I757
I691
tp2611
a(I756
I690
tp2612
a(I755
I690
tp2613
a(I754
I689
tp2614
a(I753
I688
tp2615
a(I750
I686
tp2616
a(I748
I685
tp2617
a(I746
I683
tp2618
a(I744
I683
tp2619
a(I742
I682
tp2620
a(I741
I682
tp2621
a(I741
I681
tp2622
a(I739
I681
tp2623
a(I739
I680
tp2624
a(I738
I680
tp2625
a(I738
I680
tp2626
a(I738
I679
tp2627
a(I737
I679
tp2628
a(I735
I678
tp2629
a(I733
I677
tp2630
a(I731
I676
tp2631
a(I728
I675
tp2632
a(I725
I673
tp2633
a(I724
I673
tp2634
a(I723
I673
tp2635
a(I723
I672
tp2636
a(I721
I671
tp2637
a(I720
I671
tp2638
a(I715
I669
tp2639
a(I710
I668
tp2640
a(I706
I667
tp2641
a(I704
I666
tp2642
a(I702
I666
tp2643
a(I702
I665
tp2644
a(I702
I665
tp2645
a(I702
I664
tp2646
a(I702
I664
tp2647
a(I702
I663
tp2648
a(I702
I662
tp2649
a(I702
I661
tp2650
a(I702
I661
tp2651
a(I702
I659
tp2652
a(I702
I659
tp2653
a(I702
I658
tp2654
a(I702
I657
tp2655
a(I702
I657
tp2656
a(I702
I656
tp2657
a(I702
I656
tp2658
a(I702
I655
tp2659
a(I702
I654
tp2660
a(I702
I652
tp2661
a(I702
I651
tp2662
a(I702
I651
tp2663
a(I702
I650
tp2664
a(I702
I649
tp2665
a(I702
I649
tp2666
a(I702
I648
tp2667
a(I702
I647
tp2668
a(I702
I646
tp2669
a(I702
I646
tp2670
a(I702
I645
tp2671
a(I702
I644
tp2672
a(I702
I644
tp2673
a(I702
I643
tp2674
a(I702
I642
tp2675
a(I702
I641
tp2676
a(I702
I640
tp2677
a(I702
I638
tp2678
a(I702
I638
tp2679
a(I702
I637
tp2680
a(I702
I636
tp2681
aI1
a(I702
I636
tp2682
a(I702
I638
tp2683
a(I702
I641
tp2684
a(I701
I645
tp2685
a(I701
I649
tp2686
a(I698
I655
tp2687
a(I696
I662
tp2688
a(I696
I668
tp2689
a(I693
I675
tp2690
a(I691
I681
tp2691
a(I688
I688
tp2692
a(I685
I697
tp2693
a(I683
I704
tp2694
a(I681
I712
tp2695
a(I679
I719
tp2696
a(I676
I727
tp2697
a(I675
I734
tp2698
a(I673
I740
tp2699
a(I671
I746
tp2700
a(I668
I753
tp2701
a(I666
I759
tp2702
a(I664
I765
tp2703
a(I663
I769
tp2704
a(I661
I776
tp2705
a(I659
I781
tp2706
a(I658
I785
tp2707
a(I657
I790
tp2708
a(I655
I794
tp2709
a(I655
I796
tp2710
a(I655
I797
tp2711
a(I655
I798
tp2712
a(I655
I798
tp2713
a(I655
I799
tp2714
aI0
a(I655
I799
tp2715
a(I655
I799
tp2716
a(I655
I798
tp2717
a(I655
I796
tp2718
a(I660
I792
tp2719
a(I672
I786
tp2720
a(I686
I781
tp2721
a(I703
I773
tp2722
a(I715
I767
tp2723
a(I733
I757
tp2724
a(I745
I751
tp2725
a(I758
I745
tp2726
a(I771
I737
tp2727
a(I781
I732
tp2728
a(I790
I730
tp2729
a(I799
I724
tp2730
a(I803
I722
tp2731
a(I807
I720
tp2732
a(I808
I719
tp2733
a(I808
I718
tp2734
a(I809
I718
tp2735
a(I809
I717
tp2736
a(I809
I717
tp2737
a(I810
I714
tp2738
a(I811
I713
tp2739
a(I812
I713
tp2740
a(I812
I711
tp2741
a(I813
I710
tp2742
a(I815
I708
tp2743
a(I815
I708
tp2744
a(I816
I705
tp2745
a(I817
I705
tp2746
a(I819
I702
tp2747
a(I823
I700
tp2748
a(I825
I698
tp2749
a(I829
I696
tp2750
a(I831
I694
tp2751
a(I832
I692
tp2752
a(I834
I689
tp2753
a(I835
I689
tp2754
a(I835
I688
tp2755
a(I835
I687
tp2756
a(I836
I687
tp2757
a(I836
I686
tp2758
a(I836
I686
tp2759
a(I837
I684
tp2760
a(I839
I683
tp2761
a(I839
I682
tp2762
a(I840
I681
tp2763
a(I841
I679
tp2764
a(I841
I678
tp2765
a(I842
I676
tp2766
a(I842
I676
tp2767
a(I842
I675
tp2768
a(I842
I675
tp2769
a(I843
I673
tp2770
a(I843
I671
tp2771
a(I845
I669
tp2772
a(I845
I668
tp2773
a(I845
I668
tp2774
a(I845
I667
tp2775
a(I845
I667
tp2776
a(I846
I666
tp2777
a(I846
I665
tp2778
a(I847
I664
tp2779
a(I848
I664
tp2780
a(I850
I661
tp2781
a(I851
I661
tp2782
a(I851
I660
tp2783
a(I852
I659
tp2784
a(I852
I658
tp2785
aI1
a(I852
I660
tp2786
a(I852
I670
tp2787
a(I852
I680
tp2788
a(I852
I691
tp2789
a(I852
I704
tp2790
a(I852
I717
tp2791
a(I852
I728
tp2792
a(I852
I743
tp2793
a(I852
I755
tp2794
a(I852
I766
tp2795
a(I852
I777
tp2796
a(I854
I787
tp2797
a(I854
I792
tp2798
a(I854
I798
tp2799
a(I854
I801
tp2800
a(I854
I803
tp2801
a(I854
I805
tp2802
a(I854
I807
tp2803
a(I854
I809
tp2804
a(I854
I811
tp2805
a(I854
I814
tp2806
a(I854
I817
tp2807
a(I854
I819
tp2808
a(I854
I823
tp2809
a(I854
I826
tp2810
a(I854
I827
tp2811
a(I854
I829
tp2812
a(I854
I829
tp2813
a(I854
I830
tp2814
a(I854
I830
tp2815
aI0
a(I854
I830
tp2816
a(I854
I827
tp2817
a(I854
I824
tp2818
a(I854
I820
tp2819
a(I854
I818
tp2820
a(I854
I814
tp2821
a(I854
I813
tp2822
a(I854
I810
tp2823
a(I854
I808
tp2824
a(I854
I804
tp2825
a(I854
I802
tp2826
a(I854
I799
tp2827
a(I854
I797
tp2828
a(I853
I793
tp2829
a(I852
I790
tp2830
a(I851
I787
tp2831
a(I849
I783
tp2832
a(I846
I778
tp2833
a(I843
I774
tp2834
a(I839
I769
tp2835
a(I837
I764
tp2836
a(I834
I760
tp2837
a(I830
I755
tp2838
a(I825
I751
tp2839
a(I823
I748
tp2840
a(I820
I746
tp2841
a(I819
I746
tp2842
a(I817
I745
tp2843
a(I816
I745
tp2844
a(I815
I745
tp2845
a(I814
I745
tp2846
a(I812
I745
tp2847
a(I809
I745
tp2848
a(I805
I745
tp2849
a(I800
I748
tp2850
a(I795
I751
tp2851
a(I791
I754
tp2852
a(I787
I757
tp2853
a(I783
I761
tp2854
a(I779
I766
tp2855
a(I776
I771
tp2856
a(I772
I776
tp2857
a(I767
I782
tp2858
a(I761
I788
tp2859
a(I756
I793
tp2860
a(I750
I799
tp2861
a(I746
I801
tp2862
a(I744
I803
tp2863
a(I744
I803
tp2864
a(I743
I804
tp2865
a(I742
I804
tp2866
a(I742
I805
tp2867
a(I741
I805
tp2868
a(I740
I807
tp2869
a(I738
I808
tp2870
a(I736
I810
tp2871
a(I733
I812
tp2872
a(I731
I813
tp2873
a(I731
I814
tp2874
a(I729
I814
tp2875
a(I728
I815
tp2876
a(I726
I815
tp2877
a(I723
I816
tp2878
a(I721
I816
tp2879
a(I718
I817
tp2880
a(I716
I818
tp2881
a(I713
I818
tp2882
a(I712
I818
tp2883
a(I711
I819
tp2884
a(I710
I820
tp2885
a(I710
I820
tp2886
a(I709
I820
tp2887
a(I708
I820
tp2888
a(I707
I820
tp2889
a(I706
I820
tp2890
a(I705
I820
tp2891
a(I705
I820
tp2892
a(I704
I820
tp2893
a(I703
I820
tp2894
a(I703
I820
tp2895
a(I702
I819
tp2896
a(I700
I818
tp2897
a(I699
I817
tp2898
a(I697
I816
tp2899
a(I695
I816
tp2900
a(I693
I816
tp2901
a(I692
I815
tp2902
a(I691
I815
tp2903
a(I691
I815
tp2904
a(I689
I815
tp2905
a(I687
I816
tp2906
a(I685
I817
tp2907
a(I684
I819
tp2908
a(I682
I821
tp2909
a(I681
I821
tp2910
a(I680
I822
tp2911
a(I680
I822
tp2912
a(I679
I823
tp2913
a(I679
I824
tp2914
a(I679
I824
tp2915
a(I679
I824
tp2916
a(I680
I824
tp2917
a(I680
I824
tp2918
a(I680
I823
tp2919
a(I681
I823
tp2920
a(I681
I823
tp2921
a(I682
I822
tp2922
a(I683
I822
tp2923
a(I684
I821
tp2924
a(I684
I821
tp2925
a(I684
I820
tp2926
a(I682
I818
tp2927
a(I681
I818
tp2928
a(I679
I817
tp2929
a(I678
I817
tp2930
a(I676
I817
tp2931
a(I675
I816
tp2932
a(I673
I816
tp2933
a(I673
I816
tp2934
a(I672
I816
tp2935
a(I670
I816
tp2936
a(I670
I816
tp2937
a(I668
I816
tp2938
a(I666
I816
tp2939
a(I665
I816
tp2940
aI1
a(I665
I816
tp2941
a(I667
I815
tp2942
a(I669
I815
tp2943
a(I672
I814
tp2944
a(I678
I814
tp2945
a(I687
I813
tp2946
a(I698
I813
tp2947
a(I709
I813
tp2948
a(I722
I813
tp2949
a(I738
I813
tp2950
a(I754
I813
tp2951
a(I772
I813
tp2952
a(I787
I813
tp2953
a(I802
I811
tp2954
a(I818
I810
tp2955
a(I831
I808
tp2956
a(I842
I806
tp2957
a(I851
I806
tp2958
a(I855
I805
tp2959
a(I858
I805
tp2960
a(I859
I805
tp2961
a(I861
I805
tp2962
a(I861
I805
tp2963
a(I863
I805
tp2964
a(I864
I805
tp2965
a(I864
I805
tp2966
a(I865
I805
tp2967
aI0
a(I864
I805
tp2968
a(I857
I806
tp2969
a(I849
I809
tp2970
a(I840
I813
tp2971
a(I832
I816
tp2972
a(I824
I819
tp2973
a(I814
I823
tp2974
a(I805
I824
tp2975
a(I796
I825
tp2976
a(I787
I826
tp2977
a(I779
I827
tp2978
a(I770
I827
tp2979
a(I762
I827
tp2980
a(I757
I827
tp2981
a(I753
I827
tp2982
a(I752
I827
tp2983
a(I752
I827
tp2984
a(I751
I827
tp2985
a(I751
I827
tp2986
a(I749
I827
tp2987
a(I747
I825
tp2988
a(I744
I823
tp2989
a(I741
I821
tp2990
a(I737
I818
tp2991
a(I735
I816
tp2992
a(I733
I814
tp2993
a(I733
I814
tp2994
a(I732
I813
tp2995
a(I732
I812
tp2996
a(I732
I812
tp2997
a(I732
I810
tp2998
a(I732
I810
tp2999
a(I732
I810
tp3000
a(I731
I808
tp3001
a(I731
I807
tp3002
a(I731
I806
tp3003
a(I731
I805
tp3004
a(I731
I804
tp3005
aI1
a(I731
I805
tp3006
a(I729
I808
tp3007
a(I728
I815
tp3008
a(I724
I822
tp3009
a(I721
I830
tp3010
a(I716
I839
tp3011
a(I713
I848
tp3012
a(I707
I859
tp3013
a(I702
I868
tp3014
a(I699
I877
tp3015
a(I694
I885
tp3016
a(I691
I891
tp3017
a(I688
I897
tp3018
a(I685
I903
tp3019
a(I684
I905
tp3020
a(I683
I908
tp3021
a(I683
I908
tp3022
a(I682
I909
tp3023
a(I682
I910
tp3024
a(I682
I910
tp3025
a(I682
I910
tp3026
aI0
a(I685
I908
tp3027
a(I688
I905
tp3028
a(I692
I902
tp3029
a(I700
I897
tp3030
a(I713
I890
tp3031
a(I732
I883
tp3032
a(I747
I876
tp3033
a(I763
I869
tp3034
a(I775
I864
tp3035
a(I791
I859
tp3036
a(I800
I857
tp3037
a(I806
I853
tp3038
a(I814
I850
tp3039
a(I819
I847
tp3040
a(I822
I846
tp3041
a(I827
I842
tp3042
a(I830
I841
tp3043
a(I834
I839
tp3044
a(I836
I837
tp3045
a(I838
I836
tp3046
a(I839
I836
tp3047
a(I841
I834
tp3048
a(I843
I833
tp3049
a(I844
I832
tp3050
a(I845
I831
tp3051
a(I846
I830
tp3052
a(I846
I830
tp3053
a(I847
I828
tp3054
a(I848
I827
tp3055
a(I848
I827
tp3056
a(I849
I825
tp3057
a(I849
I825
tp3058
a(I849
I823
tp3059
a(I850
I822
tp3060
a(I850
I821
tp3061
a(I850
I820
tp3062
a(I850
I819
tp3063
a(I850
I818
tp3064
a(I850
I817
tp3065
a(I850
I817
tp3066
a(I848
I817
tp3067
a(I846
I817
tp3068
a(I845
I817
tp3069
a(I845
I817
tp3070
a(I844
I817
tp3071
a(I843
I817
tp3072
a(I843
I817
tp3073
a(I841
I817
tp3074
a(I839
I815
tp3075
a(I835
I815
tp3076
a(I831
I813
tp3077
a(I829
I813
tp3078
a(I826
I812
tp3079
a(I825
I812
tp3080
a(I823
I811
tp3081
a(I823
I810
tp3082
a(I823
I810
tp3083
a(I823
I808
tp3084
a(I823
I806
tp3085
a(I823
I805
tp3086
a(I823
I803
tp3087
a(I823
I803
tp3088
a(I823
I802
tp3089
aI1
a(I823
I804
tp3090
a(I823
I810
tp3091
a(I823
I819
tp3092
a(I823
I828
tp3093
a(I823
I838
tp3094
a(I823
I845
tp3095
a(I823
I853
tp3096
a(I823
I861
tp3097
a(I824
I867
tp3098
a(I824
I873
tp3099
a(I825
I879
tp3100
a(I826
I884
tp3101
a(I828
I889
tp3102
a(I829
I895
tp3103
a(I830
I900
tp3104
a(I831
I904
tp3105
a(I833
I909
tp3106
a(I834
I911
tp3107
a(I835
I914
tp3108
a(I835
I915
tp3109
a(I836
I916
tp3110
a(I836
I918
tp3111
a(I836
I919
tp3112
a(I836
I920
tp3113
a(I836
I921
tp3114
a(I837
I921
tp3115
a(I837
I922
tp3116
aI0
a(I837
I922
tp3117
a(I838
I922
tp3118
a(I838
I922
tp3119
a(I839
I920
tp3120
a(I839
I917
tp3121
a(I844
I910
tp3122
a(I851
I898
tp3123
a(I856
I889
tp3124
a(I863
I874
tp3125
a(I872
I858
tp3126
a(I880
I843
tp3127
a(I887
I827
tp3128
a(I892
I817
tp3129
a(I896
I802
tp3130
a(I899
I791
tp3131
a(I902
I780
tp3132
a(I904
I770
tp3133
a(I904
I757
tp3134
a(I904
I746
tp3135
a(I904
I735
tp3136
a(I904
I724
tp3137
a(I904
I717
tp3138
a(I903
I709
tp3139
a(I900
I702
tp3140
a(I898
I695
tp3141
a(I895
I689
tp3142
a(I893
I684
tp3143
a(I890
I680
tp3144
a(I888
I674
tp3145
a(I886
I671
tp3146
a(I886
I668
tp3147
a(I884
I666
tp3148
a(I884
I663
tp3149
a(I884
I661
tp3150
a(I884
I660
tp3151
a(I884
I657
tp3152
a(I883
I654
tp3153
a(I882
I648
tp3154
a(I882
I646
tp3155
a(I881
I644
tp3156
a(I881
I643
tp3157
a(I880
I642
tp3158
a(I880
I641
tp3159
a(I880
I641
tp3160
a(I879
I641
tp3161
a(I876
I641
tp3162
a(I873
I641
tp3163
a(I867
I639
tp3164
a(I867
I638
tp3165
a(I866
I638
tp3166
a(I866
I638
tp3167
a(I861
I632
tp3168
a(I861
I630
tp3169
a(I861
I628
tp3170
a(I861
I626
tp3171
a(I861
I625
tp3172
a(I861
I623
tp3173
a(I861
I622
tp3174
a(I861
I621
tp3175
a(I861
I620
tp3176
a(I861
I618
tp3177
a(I860
I617
tp3178
a(I859
I615
tp3179
a(I858
I614
tp3180
a(I858
I614
tp3181
a(I858
I617
tp3182
a(I858
I631
tp3183
a(I858
I642
tp3184
a(I858
I654
tp3185
a(I858
I665
tp3186
a(I859
I676
tp3187
a(I859
I686
tp3188
a(I859
I695
tp3189
a(I859
I703
tp3190
a(I859
I711
tp3191
a(I859
I720
tp3192
a(I859
I725
tp3193
a(I859
I731
tp3194
a(I859
I736
tp3195
a(I859
I739
tp3196
a(I859
I740
tp3197
a(I859
I742
tp3198
a(I859
I742
tp3199
a(I859
I743
tp3200
a(I857
I744
tp3201
a(I851
I746
tp3202
a(I843
I748
tp3203
a(I834
I751
tp3204
a(I825
I755
tp3205
a(I816
I759
tp3206
a(I808
I763
tp3207
a(I801
I766
tp3208
a(I793
I769
tp3209
a(I787
I773
tp3210
a(I783
I773
tp3211
a(I778
I776
tp3212
a(I773
I777
tp3213
a(I766
I780
tp3214
a(I761
I781
tp3215
a(I754
I784
tp3216
a(I748
I787
tp3217
a(I744
I789
tp3218
a(I741
I790
tp3219
a(I738
I791
tp3220
a(I737
I792
tp3221
a(I736
I792
tp3222
a(I735
I792
tp3223
a(I735
I793
tp3224
a(I734
I793
tp3225
a(I733
I794
tp3226
a(I733
I795
tp3227
a(I731
I796
tp3228
a(I731
I798
tp3229
a(I729
I800
tp3230
a(I728
I802
tp3231
a(I728
I803
tp3232
a(I727
I803
tp3233
a(I727
I804
tp3234
a(I726
I804
tp3235
a(I723
I804
tp3236
a(I721
I804
tp3237
a(I720
I805
tp3238
a(I717
I806
tp3239
a(I715
I806
tp3240
a(I715
I806
tp3241
a(I714
I806
tp3242
a(I712
I806
tp3243
a(I710
I806
tp3244
a(I708
I806
tp3245
a(I703
I806
tp3246
a(I697
I805
tp3247
a(I690
I802
tp3248
a(I686
I802
tp3249
a(I685
I801
tp3250
a(I682
I800
tp3251
a(I681
I799
tp3252
a(I680
I798
tp3253
a(I679
I797
tp3254
a(I678
I796
tp3255
a(I677
I795
tp3256
a(I676
I793
tp3257
a(I674
I790
tp3258
a(I672
I788
tp3259
a(I669
I785
tp3260
a(I667
I783
tp3261
a(I666
I783
tp3262
a(I666
I782
tp3263
a(I666
I782
tp3264
a(I665
I781
tp3265
a(I665
I780
tp3266
a(I664
I780
tp3267
a(I664
I779
tp3268
a(I663
I778
tp3269
a(I661
I776
tp3270
a(I657
I774
tp3271
a(I656
I773
tp3272
a(I654
I771
tp3273
a(I654
I771
tp3274
a(I652
I771
tp3275
a(I651
I770
tp3276
a(I651
I770
tp3277
a(I651
I773
tp3278
a(I653
I775
tp3279
a(I656
I779
tp3280
a(I659
I783
tp3281
a(I660
I786
tp3282
a(I661
I787
tp3283
a(I663
I790
tp3284
a(I664
I791
tp3285
a(I665
I793
tp3286
a(I666
I794
tp3287
a(I667
I794
tp3288
a(I668
I796
tp3289
a(I668
I797
tp3290
a(I668
I797
tp3291
a(I668
I797
tp3292
a(I668
I798
tp3293
a(I668
I799
tp3294
a(I668
I800
tp3295
a(I668
I801
tp3296
a(I668
I802
tp3297
a(I667
I803
tp3298
a(I666
I804
tp3299
a(I663
I806
tp3300
a(I661
I808
tp3301
a(I659
I810
tp3302
a(I658
I812
tp3303
a(I657
I813
tp3304
a(I657
I813
tp3305
a(I657
I813
tp3306
a(I657
I813
tp3307
a(I656
I813
tp3308
a(I656
I813
tp3309
a(I656
I812
tp3310
a(I656
I810
tp3311
a(I655
I809
tp3312
a(I654
I806
tp3313
a(I653
I805
tp3314
a(I652
I803
tp3315
a(I652
I800
tp3316
a(I652
I799
tp3317
a(I652
I798
tp3318
a(I651
I796
tp3319
a(I651
I795
tp3320
a(I651
I792
tp3321
a(I651
I790
tp3322
a(I650
I788
tp3323
a(I650
I785
tp3324
a(I650
I783
tp3325
a(I650
I781
tp3326
a(I650
I780
tp3327
a(I650
I777
tp3328
a(I650
I775
tp3329
a(I650
I774
tp3330
a(I650
I771
tp3331
a(I650
I769
tp3332
a(I652
I766
tp3333
a(I652
I762
tp3334
a(I654
I760
tp3335
a(I654
I754
tp3336
a(I657
I749
tp3337
a(I659
I743
tp3338
a(I662
I736
tp3339
a(I664
I729
tp3340
a(I666
I722
tp3341
a(I667
I715
tp3342
a(I670
I709
tp3343
a(I670
I707
tp3344
a(I671
I704
tp3345
a(I671
I703
tp3346
a(I672
I701
tp3347
a(I673
I699
tp3348
a(I673
I699
tp3349
a(I673
I697
tp3350
a(I673
I696
tp3351
a(I674
I695
tp3352
a(I675
I692
tp3353
a(I676
I689
tp3354
a(I678
I687
tp3355
a(I680
I685
tp3356
a(I681
I682
tp3357
a(I682
I681
tp3358
a(I683
I679
tp3359
a(I684
I678
tp3360
a(I685
I676
tp3361
a(I686
I676
tp3362
a(I686
I674
tp3363
a(I687
I673
tp3364
a(I688
I671
tp3365
a(I688
I669
tp3366
a(I689
I668
tp3367
a(I690
I665
tp3368
a(I690
I663
tp3369
a(I691
I661
tp3370
a(I691
I660
tp3371
a(I691
I659
tp3372
a(I692
I658
tp3373
a(I692
I657
tp3374
a(I692
I657
tp3375
a(I693
I656
tp3376
a(I693
I654
tp3377
a(I693
I652
tp3378
a(I694
I651
tp3379
a(I694
I648
tp3380
a(I694
I647
tp3381
a(I694
I647
tp3382
a(I694
I646
tp3383
a(I694
I645
tp3384
aI1
a(I694
I645
tp3385
a(I694
I651
tp3386
a(I692
I657
tp3387
a(I688
I666
tp3388
a(I682
I679
tp3389
a(I677
I692
tp3390
a(I669
I709
tp3391
a(I665
I726
tp3392
a(I660
I742
tp3393
a(I655
I764
tp3394
a(I650
I780
tp3395
a(I645
I797
tp3396
a(I643
I812
tp3397
a(I639
I824
tp3398
a(I636
I835
tp3399
a(I634
I844
tp3400
a(I631
I851
tp3401
a(I629
I858
tp3402
a(I629
I862
tp3403
a(I629
I867
tp3404
a(I627
I869
tp3405
a(I627
I873
tp3406
a(I627
I875
tp3407
a(I627
I878
tp3408
a(I626
I879
tp3409
a(I626
I880
tp3410
a(I626
I880
tp3411
a(I626
I881
tp3412
a(I626
I881
tp3413
a(I626
I882
tp3414
a(I626
I882
tp3415
a(I626
I882
tp3416
aI0
a(I626
I882
tp3417
a(I626
I881
tp3418
a(I626
I879
tp3419
a(I626
I879
tp3420
a(I626
I877
tp3421
a(I626
I874
tp3422
a(I626
I870
tp3423
a(I626
I865
tp3424
a(I626
I858
tp3425
a(I626
I849
tp3426
a(I626
I840
tp3427
a(I626
I830
tp3428
a(I626
I818
tp3429
a(I626
I808
tp3430
a(I626
I796
tp3431
a(I626
I787
tp3432
a(I626
I778
tp3433
a(I627
I770
tp3434
a(I628
I763
tp3435
a(I629
I756
tp3436
a(I629
I751
tp3437
a(I629
I745
tp3438
a(I629
I740
tp3439
a(I629
I737
tp3440
a(I629
I732
tp3441
a(I629
I730
tp3442
a(I629
I727
tp3443
a(I629
I725
tp3444
a(I631
I721
tp3445
a(I631
I719
tp3446
a(I633
I714
tp3447
a(I633
I712
tp3448
a(I634
I707
tp3449
a(I634
I703
tp3450
a(I634
I700
tp3451
a(I635
I697
tp3452
a(I635
I695
tp3453
a(I636
I693
tp3454
a(I636
I691
tp3455
a(I636
I690
tp3456
a(I636
I689
tp3457
a(I636
I688
tp3458
a(I636
I688
tp3459
a(I636
I687
tp3460
a(I636
I686
tp3461
a(I636
I685
tp3462
a(I636
I682
tp3463
a(I636
I682
tp3464
a(I636
I681
tp3465
a(I636
I680
tp3466
a(I636
I680
tp3467
a(I636
I679
tp3468
a(I636
I677
tp3469
a(I636
I676
tp3470
a(I636
I674
tp3471
a(I636
I671
tp3472
a(I636
I669
tp3473
a(I636
I667
tp3474
a(I636
I665
tp3475
a(I636
I664
tp3476
a(I636
I663
tp3477
a(I636
I662
tp3478
a(I636
I662
tp3479
a(I636
I661
tp3480
a(I637
I659
tp3481
a(I640
I657
tp3482
a(I643
I655
tp3483
a(I644
I653
tp3484
a(I648
I651
tp3485
a(I651
I647
tp3486
a(I654
I644
tp3487
a(I655
I642
tp3488
a(I656
I641
tp3489
a(I657
I639
tp3490
a(I657
I638
tp3491
a(I657
I638
tp3492
a(I657
I638
tp3493
a(I657
I637
tp3494
a(I658
I636
tp3495
a(I658
I634
tp3496
a(I658
I634
tp3497
a(I658
I633
tp3498
a(I658
I632
tp3499
a(I658
I631
tp3500
a(I656
I631
tp3501
a(I654
I631
tp3502
a(I653
I631
tp3503
a(I650
I634
tp3504
a(I647
I637
tp3505
a(I644
I642
tp3506
a(I642
I646
tp3507
a(I641
I649
tp3508
a(I639
I650
tp3509
a(I638
I652
tp3510
a(I638
I653
tp3511
a(I638
I653
tp3512
a(I638
I654
tp3513
a(I637
I655
tp3514
a(I637
I656
tp3515
a(I636
I656
tp3516
a(I636
I657
tp3517
a(I636
I657
tp3518
a(I635
I658
tp3519
a(I634
I658
tp3520
a(I634
I658
tp3521
a(I632
I658
tp3522
a(I630
I658
tp3523
a(I627
I658
tp3524
a(I626
I658
tp3525
a(I625
I659
tp3526
a(I625
I659
tp3527
a(I625
I659
tp3528
a(I625
I659
tp3529
a(I625
I658
tp3530
a(I625
I658
tp3531
a(I625
I657
tp3532
a(I625
I656
tp3533
a(I625
I656
tp3534
a(I625
I655
tp3535
a(I625
I655
tp3536
a(I625
I654
tp3537
a(I625
I654
tp3538
a(I625
I653
tp3539
a(I625
I653
tp3540
a(I625
I651
tp3541
a(I625
I651
tp3542
a(I625
I649
tp3543
a(I625
I649
tp3544
a(I625
I648
tp3545
a(I625
I646
tp3546
a(I625
I646
tp3547
aI1
a(I625
I647
tp3548
a(I625
I653
tp3549
a(I625
I662
tp3550
a(I624
I674
tp3551
a(I622
I687
tp3552
a(I617
I707
tp3553
a(I612
I726
tp3554
a(I605
I749
tp3555
a(I602
I766
tp3556
a(I598
I778
tp3557
a(I595
I787
tp3558
a(I593
I795
tp3559
a(I590
I802
tp3560
a(I589
I809
tp3561
a(I587
I815
tp3562
a(I585
I823
tp3563
a(I582
I831
tp3564
a(I581
I836
tp3565
a(I579
I845
tp3566
a(I576
I853
tp3567
a(I574
I861
tp3568
a(I571
I868
tp3569
a(I569
I874
tp3570
a(I568
I878
tp3571
a(I568
I880
tp3572
a(I567
I882
tp3573
a(I567
I884
tp3574
a(I567
I885
tp3575
a(I567
I886
tp3576
a(I567
I886
tp3577
a(I567
I886
tp3578
aI0
a(I567
I883
tp3579
a(I571
I876
tp3580
a(I574
I874
tp3581
a(I584
I868
tp3582
a(I601
I858
tp3583
a(I627
I843
tp3584
a(I662
I823
tp3585
a(I692
I807
tp3586
a(I723
I791
tp3587
a(I755
I774
tp3588
a(I783
I760
tp3589
a(I810
I749
tp3590
a(I837
I740
tp3591
a(I858
I734
tp3592
a(I873
I730
tp3593
a(I888
I726
tp3594
a(I897
I724
tp3595
a(I902
I723
tp3596
a(I906
I721
tp3597
a(I906
I720
tp3598
a(I907
I720
tp3599
a(I907
I719
tp3600
a(I907
I718
tp3601
a(I907
I718
tp3602
a(I907
I717
tp3603
a(I908
I716
tp3604
a(I909
I715
tp3605
a(I911
I713
tp3606
a(I912
I711
tp3607
a(I915
I708
tp3608
a(I920
I706
tp3609
a(I925
I704
tp3610
a(I930
I703
tp3611
a(I931
I701
tp3612
a(I933
I701
tp3613
a(I934
I701
tp3614
a(I935
I700
tp3615
a(I937
I699
tp3616
a(I938
I698
tp3617
a(I940
I698
tp3618
a(I945
I696
tp3619
a(I947
I694
tp3620
a(I951
I693
tp3621
a(I954
I691
tp3622
a(I957
I690
tp3623
a(I959
I689
tp3624
a(I959
I688
tp3625
a(I960
I688
tp3626
a(I960
I688
tp3627
a(I960
I687
tp3628
a(I961
I686
tp3629
a(I962
I686
tp3630
a(I963
I685
tp3631
a(I963
I685
tp3632
a(I964
I685
tp3633
a(I964
I684
tp3634
a(I964
I683
tp3635
a(I965
I683
tp3636
a(I965
I682
tp3637
a(I967
I681
tp3638
a(I968
I680
tp3639
a(I968
I678
tp3640
a(I970
I677
tp3641
a(I970
I677
tp3642
a(I970
I676
tp3643
a(I971
I675
tp3644
a(I971
I675
tp3645
a(I971
I674
tp3646
a(I971
I674
tp3647
a(I971
I673
tp3648
a(I970
I673
tp3649
a(I968
I673
tp3650
a(I967
I672
tp3651
a(I966
I672
tp3652
a(I966
I672
tp3653
a(I964
I670
tp3654
a(I962
I669
tp3655
a(I960
I669
tp3656
a(I957
I668
tp3657
a(I957
I668
tp3658
a(I956
I668
tp3659
a(I955
I668
tp3660
a(I954
I667
tp3661
a(I954
I667
tp3662
a(I953
I667
tp3663
a(I952
I666
tp3664
aI1
a(I952
I668
tp3665
a(I952
I671
tp3666
a(I952
I679
tp3667
a(I952
I688
tp3668
a(I952
I697
tp3669
a(I952
I708
tp3670
a(I952
I719
tp3671
a(I952
I729
tp3672
a(I952
I738
tp3673
a(I952
I746
tp3674
a(I952
I756
tp3675
a(I952
I764
tp3676
a(I952
I775
tp3677
a(I952
I783
tp3678
a(I952
I793
tp3679
a(I952
I802
tp3680
a(I952
I808
tp3681
a(I952
I814
tp3682
a(I952
I818
tp3683
a(I952
I823
tp3684
a(I952
I827
tp3685
a(I952
I832
tp3686
a(I952
I836
tp3687
a(I952
I839
tp3688
a(I952
I843
tp3689
a(I952
I845
tp3690
a(I952
I847
tp3691
a(I952
I849
tp3692
a(I952
I849
tp3693
a(I952
I851
tp3694
a(I952
I851
tp3695
a(I952
I852
tp3696
a(I952
I854
tp3697
a(I952
I854
tp3698
a(I952
I855
tp3699
a(I952
I857
tp3700
a(I952
I858
tp3701
a(I952
I859
tp3702
a(I952
I859
tp3703
a(I952
I860
tp3704
a(I952
I862
tp3705
a(I954
I863
tp3706
a(I954
I864
tp3707
a(I954
I865
tp3708
aI0
a(I953
I866
tp3709
a(I951
I866
tp3710
a(I949
I866
tp3711
a(I948
I866
tp3712
a(I948
I866
tp3713
a(I947
I866
tp3714
a(I946
I866
tp3715
a(I946
I866
tp3716
a(I944
I866
tp3717
a(I942
I867
tp3718
a(I941
I867
tp3719
a(I940
I868
tp3720
a(I938
I868
tp3721
a(I937
I869
tp3722
a(I937
I869
tp3723
a(I936
I869
tp3724
a(I935
I869
tp3725
a(I935
I869
tp3726
a(I934
I870
tp3727
a(I934
I870
tp3728
a(I933
I870
tp3729
a(I933
I870
tp3730
a(I932
I870
tp3731
a(I931
I870
tp3732
a(I929
I870
tp3733
a(I927
I870
tp3734
a(I924
I870
tp3735
a(I923
I870
tp3736
a(I922
I870
tp3737
a(I922
I870
tp3738
a(I921
I870
tp3739
a(I920
I870
tp3740
a(I919
I868
tp3741
a(I919
I867
tp3742
a(I917
I864
tp3743
a(I915
I859
tp3744
a(I914
I857
tp3745
a(I912
I854
tp3746
a(I912
I853
tp3747
a(I911
I852
tp3748
a(I911
I852
tp3749
a(I911
I851
tp3750
a(I911
I848
tp3751
a(I911
I847
tp3752
a(I911
I845
tp3753
a(I911
I842
tp3754
a(I911
I841
tp3755
a(I911
I840
tp3756
a(I911
I840
tp3757
a(I911
I839
tp3758
a(I911
I838
tp3759
a(I911
I838
tp3760
a(I911
I837
tp3761
a(I911
I836
tp3762
a(I911
I835
tp3763
a(I912
I833
tp3764
a(I912
I832
tp3765
a(I912
I831
tp3766
a(I912
I830
tp3767
a(I913
I829
tp3768
a(I913
I829
tp3769
a(I910
I832
tp3770
a(I906
I839
tp3771
a(I903
I846
tp3772
a(I899
I854
tp3773
a(I896
I859
tp3774
a(I894
I861
tp3775
a(I892
I864
tp3776
a(I891
I865
tp3777
a(I890
I865
tp3778
a(I889
I867
tp3779
a(I887
I868
tp3780
a(I886
I869
tp3781
a(I885
I870
tp3782
a(I884
I870
tp3783
a(I883
I871
tp3784
a(I883
I871
tp3785
a(I882
I871
tp3786
a(I881
I871
tp3787
a(I879
I871
tp3788
a(I877
I871
tp3789
a(I874
I871
tp3790
a(I869
I871
tp3791
a(I865
I871
tp3792
a(I863
I871
tp3793
a(I862
I871
tp3794
a(I861
I871
tp3795
a(I861
I871
tp3796
a(I860
I871
tp3797
a(I860
I870
tp3798
a(I859
I868
tp3799
a(I858
I866
tp3800
a(I858
I865
tp3801
a(I858
I863
tp3802
a(I858
I860
tp3803
a(I858
I857
tp3804
a(I858
I856
tp3805
a(I858
I854
tp3806
a(I858
I853
tp3807
a(I858
I851
tp3808
a(I859
I848
tp3809
a(I859
I845
tp3810
a(I860
I842
tp3811
a(I861
I839
tp3812
a(I862
I838
tp3813
a(I863
I835
tp3814
a(I863
I833
tp3815
a(I864
I831
tp3816
a(I865
I829
tp3817
a(I865
I828
tp3818
a(I866
I827
tp3819
a(I866
I825
tp3820
a(I866
I823
tp3821
a(I866
I823
tp3822
a(I866
I822
tp3823
a(I866
I821
tp3824
a(I866
I821
tp3825
a(I866
I820
tp3826
a(I867
I818
tp3827
a(I868
I818
tp3828
a(I868
I817
tp3829
a(I868
I816
tp3830
a(I870
I814
tp3831
a(I871
I812
tp3832
a(I874
I809
tp3833
a(I875
I808
tp3834
a(I877
I806
tp3835
a(I878
I805
tp3836
a(I878
I804
tp3837
a(I878
I805
tp3838
a(I878
I806
tp3839
a(I879
I808
tp3840
a(I879
I809
tp3841
a(I880
I809
tp3842
a(I880
I809
tp3843
a(I881
I809
tp3844
a(I882
I809
tp3845
a(I883
I809
tp3846
a(I884
I809
tp3847
a(I886
I807
tp3848
a(I886
I806
tp3849
a(I888
I804
tp3850
a(I889
I804
tp3851
a(I889
I803
tp3852
a(I889
I802
tp3853
a(I888
I800
tp3854
a(I887
I798
tp3855
a(I884
I795
tp3856
a(I879
I792
tp3857
a(I872
I787
tp3858
a(I862
I780
tp3859
a(I849
I772
tp3860
a(I834
I766
tp3861
a(I818
I760
tp3862
a(I810
I757
tp3863
a(I803
I756
tp3864
a(I801
I755
tp3865
a(I797
I753
tp3866
a(I797
I753
tp3867
a(I796
I753
tp3868
a(I795
I753
tp3869
a(I792
I753
tp3870
a(I788
I752
tp3871
a(I783
I752
tp3872
a(I777
I752
tp3873
a(I772
I752
tp3874
a(I768
I752
tp3875
a(I767
I752
tp3876
a(I766
I752
tp3877
a(I765
I752
tp3878
a(I762
I752
tp3879
a(I758
I750
tp3880
a(I755
I749
tp3881
a(I751
I748
tp3882
a(I749
I748
tp3883
a(I748
I747
tp3884
a(I746
I746
tp3885
a(I740
I743
tp3886
a(I734
I742
tp3887
a(I728
I741
tp3888
a(I723
I739
tp3889
a(I721
I738
tp3890
a(I718
I738
tp3891
a(I717
I738
tp3892
a(I711
I735
tp3893
a(I707
I733
tp3894
a(I701
I730
tp3895
a(I699
I729
tp3896
a(I697
I729
tp3897
a(I697
I728
tp3898
aI1
a(I697
I728
tp3899
a(I699
I728
tp3900
a(I703
I728
tp3901
a(I708
I728
tp3902
a(I714
I728
tp3903
a(I720
I728
tp3904
a(I728
I728
tp3905
a(I735
I728
tp3906
a(I742
I728
tp3907
a(I751
I728
tp3908
a(I761
I728
tp3909
a(I770
I728
tp3910
a(I780
I728
tp3911
a(I787
I728
tp3912
a(I792
I728
tp3913
a(I796
I728
tp3914
a(I800
I728
tp3915
a(I802
I728
tp3916
a(I804
I728
tp3917
a(I805
I728
tp3918
a(I805
I728
tp3919
a(I806
I728
tp3920
a(I807
I728
tp3921
a(I808
I728
tp3922
a(I810
I728
tp3923
a(I814
I728
tp3924
a(I818
I728
tp3925
a(I821
I728
tp3926
a(I825
I728
tp3927
a(I827
I728
tp3928
a(I828
I728
tp3929
a(I829
I728
tp3930
a(I830
I728
tp3931
a(I833
I728
tp3932
a(I837
I729
tp3933
a(I839
I729
tp3934
a(I840
I729
tp3935
a(I840
I729
tp3936
aI0
a(I839
I729
tp3937
a(I833
I729
tp3938
a(I826
I729
tp3939
a(I819
I729
tp3940
a(I816
I730
tp3941
a(I813
I731
tp3942
a(I813
I731
tp3943
a(I812
I731
tp3944
a(I811
I731
tp3945
a(I811
I731
tp3946
a(I810
I731
tp3947
a(I808
I731
tp3948
a(I807
I731
tp3949
a(I803
I731
tp3950
a(I801
I730
tp3951
a(I796
I728
tp3952
a(I794
I728
tp3953
a(I793
I727
tp3954
a(I791
I726
tp3955
a(I791
I726
tp3956
a(I790
I726
tp3957
a(I789
I726
tp3958
a(I788
I726
tp3959
a(I785
I725
tp3960
a(I782
I724
tp3961
a(I779
I723
tp3962
a(I775
I722
tp3963
a(I773
I722
tp3964
a(I771
I721
tp3965
a(I769
I721
tp3966
a(I766
I719
tp3967
a(I763
I718
tp3968
a(I759
I716
tp3969
a(I755
I716
tp3970
a(I750
I713
tp3971
a(I746
I712
tp3972
a(I741
I710
tp3973
a(I736
I708
tp3974
a(I731
I708
tp3975
a(I728
I706
tp3976
a(I727
I705
tp3977
a(I727
I705
tp3978
a(I726
I704
tp3979
a(I726
I704
tp3980
a(I725
I703
tp3981
a(I724
I703
tp3982
a(I720
I702
tp3983
a(I716
I699
tp3984
a(I714
I699
tp3985
a(I712
I699
tp3986
a(I710
I699
tp3987
a(I709
I698
tp3988
aI1
a(I709
I698
tp3989
a(I712
I698
tp3990
a(I716
I698
tp3991
a(I723
I698
tp3992
a(I728
I698
tp3993
a(I736
I698
tp3994
a(I740
I698
tp3995
a(I745
I698
tp3996
a(I749
I698
tp3997
a(I753
I698
tp3998
a(I754
I698
tp3999
a(I757
I698
tp4000
a(I759
I698
tp4001
a(I762
I698
tp4002
a(I766
I698
tp4003
a(I770
I698
tp4004
a(I777
I698
tp4005
a(I782
I698
tp4006
a(I790
I698
tp4007
a(I795
I698
tp4008
a(I801
I698
tp4009
a(I807
I698
tp4010
a(I811
I698
tp4011
a(I816
I698
tp4012
a(I821
I698
tp4013
a(I826
I698
tp4014
a(I830
I698
tp4015
a(I835
I698
tp4016
a(I839
I698
tp4017
a(I840
I698
tp4018
a(I841
I698
tp4019
aI0
a(I841
I698
tp4020
a(I835
I700
tp4021
a(I828
I706
tp4022
a(I821
I711
tp4023
a(I814
I716
tp4024
a(I808
I721
tp4025
a(I803
I725
tp4026
a(I796
I728
tp4027
a(I791
I731
tp4028
a(I785
I733
tp4029
a(I781
I736
tp4030
a(I777
I739
tp4031
a(I774
I740
tp4032
a(I771
I743
tp4033
a(I769
I746
tp4034
a(I767
I750
tp4035
a(I765
I752
tp4036
a(I762
I755
tp4037
a(I759
I757
tp4038
a(I756
I758
tp4039
a(I752
I761
tp4040
a(I751
I762
tp4041
a(I749
I763
tp4042
a(I748
I763
tp4043
a(I748
I764
tp4044
a(I747
I764
tp4045
a(I746
I764
tp4046
a(I744
I765
tp4047
a(I743
I765
tp4048
a(I740
I765
tp4049
a(I738
I765
tp4050
a(I737
I765
tp4051
a(I736
I765
tp4052
a(I736
I765
tp4053
a(I735
I765
tp4054
a(I733
I765
tp4055
a(I729
I763
tp4056
a(I725
I761
tp4057
a(I721
I759
tp4058
a(I718
I758
tp4059
a(I717
I758
tp4060
a(I715
I756
tp4061
a(I715
I756
tp4062
a(I715
I755
tp4063
a(I714
I754
tp4064
a(I714
I754
tp4065
aI1
a(I714
I754
tp4066
a(I717
I753
tp4067
a(I721
I753
tp4068
a(I729
I753
tp4069
a(I738
I753
tp4070
a(I747
I753
tp4071
a(I757
I753
tp4072
a(I766
I753
tp4073
a(I775
I753
tp4074
a(I782
I753
tp4075
a(I787
I753
tp4076
a(I792
I753
tp4077
a(I795
I753
tp4078
a(I797
I753
tp4079
a(I800
I753
tp4080
a(I804
I754
tp4081
a(I808
I754
tp4082
a(I813
I754
tp4083
a(I817
I754
tp4084
a(I822
I754
tp4085
a(I825
I754
tp4086
a(I830
I754
tp4087
a(I832
I754
tp4088
a(I834
I754
tp4089
a(I836
I754
tp4090
a(I838
I754
tp4091
a(I840
I754
tp4092
a(I842
I754
tp4093
a(I843
I754
tp4094
a(I844
I754
tp4095
aI0
a(I844
I754
tp4096
a(I838
I754
tp4097
a(I828
I754
tp4098
a(I816
I754
tp4099
a(I800
I759
tp4100
a(I787
I762
tp4101
a(I777
I765
tp4102
a(I767
I768
tp4103
a(I762
I769
tp4104
a(I758
I769
tp4105
a(I755
I772
tp4106
a(I753
I772
tp4107
a(I751
I772
tp4108
a(I749
I772
tp4109
a(I746
I772
tp4110
a(I742
I772
tp4111
a(I738
I772
tp4112
a(I730
I772
tp4113
a(I724
I772
tp4114
a(I718
I772
tp4115
a(I715
I772
tp4116
a(I714
I772
tp4117
a(I713
I772
tp4118
a(I712
I772
tp4119
a(I711
I772
tp4120
a(I709
I772
tp4121
a(I708
I773
tp4122
a(I705
I773
tp4123
a(I703
I773
tp4124
a(I700
I773
tp4125
a(I699
I773
tp4126
a(I699
I773
tp4127
a(I697
I773
tp4128
a(I695
I773
tp4129
a(I693
I773
tp4130
a(I690
I773
tp4131
a(I688
I773
tp4132
a(I685
I773
tp4133
a(I684
I773
tp4134
aI1
a(I684
I774
tp4135
a(I684
I774
tp4136
a(I686
I775
tp4137
a(I687
I775
tp4138
a(I690
I776
tp4139
a(I695
I776
tp4140
a(I700
I776
tp4141
a(I706
I776
tp4142
a(I711
I776
tp4143
a(I719
I776
tp4144
a(I729
I776
tp4145
a(I738
I776
tp4146
a(I747
I776
tp4147
a(I755
I776
tp4148
a(I761
I776
tp4149
a(I769
I776
tp4150
a(I775
I776
tp4151
a(I779
I776
tp4152
a(I783
I776
tp4153
a(I789
I775
tp4154
a(I792
I775
tp4155
a(I795
I775
tp4156
a(I798
I775
tp4157
a(I801
I775
tp4158
a(I804
I775
tp4159
a(I806
I775
tp4160
a(I808
I775
tp4161
a(I810
I775
tp4162
a(I810
I775
tp4163
a(I811
I775
tp4164
a(I811
I775
tp4165
a(I814
I775
tp4166
a(I816
I775
tp4167
a(I818
I775
tp4168
a(I819
I775
tp4169
a(I820
I775
tp4170
aI0
a(I820
I775
tp4171
a(I817
I775
tp4172
a(I814
I774
tp4173
a(I808
I771
tp4174
a(I799
I766
tp4175
a(I791
I761
tp4176
a(I783
I755
tp4177
a(I775
I750
tp4178
a(I767
I744
tp4179
a(I764
I741
tp4180
a(I763
I739
tp4181
a(I762
I735
tp4182
a(I760
I733
tp4183
a(I760
I730
tp4184
a(I759
I727
tp4185
a(I758
I722
tp4186
a(I757
I718
tp4187
a(I756
I715
tp4188
a(I753
I710
tp4189
a(I753
I707
tp4190
a(I753
I705
tp4191
a(I752
I702
tp4192
a(I752
I701
tp4193
a(I752
I699
tp4194
a(I752
I696
tp4195
a(I752
I695
tp4196
a(I752
I693
tp4197
a(I752
I693
tp4198
a(I752
I690
tp4199
a(I752
I689
tp4200
a(I752
I687
tp4201
a(I750
I685
tp4202
a(I750
I683
tp4203
a(I749
I681
tp4204
a(I749
I680
tp4205
a(I749
I679
tp4206
a(I749
I679
tp4207
a(I749
I678
tp4208
a(I749
I678
tp4209
a(I749
I677
tp4210
a(I749
I676
tp4211
a(I749
I675
tp4212
a(I748
I674
tp4213
a(I748
I673
tp4214
a(I747
I673
tp4215
a(I747
I672
tp4216
a(I747
I671
tp4217
a(I747
I671
tp4218
a(I747
I670
tp4219
a(I747
I669
tp4220
a(I747
I669
tp4221
a(I747
I668
tp4222
a(I747
I667
tp4223
a(I747
I666
tp4224
a(I747
I666
tp4225
a(I747
I665
tp4226
a(I747
I665
tp4227
a(I747
I664
tp4228
a(I747
I664
tp4229
a(I747
I664
tp4230
a(I746
I663
tp4231
a(I746
I662
tp4232
a(I746
I660
tp4233
a(I746
I659
tp4234
a(I746
I658
tp4235
a(I745
I658
tp4236
a(I745
I656
tp4237
a(I745
I656
tp4238
a(I745
I655
tp4239
aI1
a(I741
I655
tp4240
a(I740
I661
tp4241
a(I737
I668
tp4242
a(I735
I679
tp4243
a(I730
I692
tp4244
a(I726
I708
tp4245
a(I721
I724
tp4246
a(I716
I741
tp4247
a(I714
I756
tp4248
a(I711
I771
tp4249
a(I710
I782
tp4250
a(I708
I794
tp4251
a(I706
I804
tp4252
a(I705
I814
tp4253
a(I704
I821
tp4254
a(I702
I829
tp4255
a(I701
I834
tp4256
a(I701
I839
tp4257
a(I701
I842
tp4258
a(I701
I845
tp4259
a(I701
I845
tp4260
a(I701
I846
tp4261
a(I701
I844
tp4262
aI0
a(I706
I837
tp4263
a(I712
I830
tp4264
a(I717
I824
tp4265
a(I727
I812
tp4266
a(I741
I796
tp4267
a(I754
I776
tp4268
a(I763
I762
tp4269
a(I772
I751
tp4270
a(I776
I743
tp4271
a(I779
I737
tp4272
a(I781
I733
tp4273
a(I782
I729
tp4274
a(I784
I725
tp4275
a(I785
I722
tp4276
a(I786
I719
tp4277
a(I788
I716
tp4278
a(I790
I713
tp4279
a(I792
I710
tp4280
a(I794
I705
tp4281
a(I796
I702
tp4282
a(I797
I700
tp4283
a(I799
I695
tp4284
a(I800
I693
tp4285
a(I802
I689
tp4286
a(I803
I687
tp4287
a(I804
I684
tp4288
a(I806
I682
tp4289
a(I809
I679
tp4290
a(I810
I677
tp4291
a(I811
I676
tp4292
a(I813
I674
tp4293
a(I816
I670
tp4294
a(I816
I669
tp4295
a(I817
I668
tp4296
a(I817
I668
tp4297
aI1
a(I817
I667
tp4298
a(I815
I668
tp4299
a(I812
I677
tp4300
a(I807
I686
tp4301
a(I804
I696
tp4302
a(I799
I706
tp4303
a(I794
I718
tp4304
a(I789
I730
tp4305
a(I785
I740
tp4306
a(I780
I752
tp4307
a(I775
I762
tp4308
a(I772
I770
tp4309
a(I769
I779
tp4310
a(I765
I787
tp4311
a(I762
I793
tp4312
a(I760
I798
tp4313
a(I760
I802
tp4314
a(I760
I804
tp4315
a(I758
I806
tp4316
a(I758
I807
tp4317
a(I758
I808
tp4318
a(I757
I809
tp4319
a(I757
I810
tp4320
a(I757
I811
tp4321
a(I757
I812
tp4322
a(I757
I812
tp4323
a(I757
I813
tp4324
a(I757
I814
tp4325
a(I757
I815
tp4326
a(I757
I816
tp4327
aI0
a(I757
I816
tp4328
a(I757
I814
tp4329
a(I757
I812
tp4330
a(I758
I810
tp4331
a(I758
I809
tp4332
a(I758
I807
tp4333
a(I759
I805
tp4334
a(I759
I802
tp4335
a(I760
I797
tp4336
a(I760
I791
tp4337
a(I761
I783
tp4338
a(I762
I776
tp4339
a(I763
I764
tp4340
a(I764
I754
tp4341
a(I767
I745
tp4342
a(I768
I738
tp4343
a(I768
I732
tp4344
a(I768
I725
tp4345
a(I770
I722
tp4346
a(I770
I717
tp4347
a(I771
I713
tp4348
a(I771
I709
tp4349
a(I771
I706
tp4350
a(I771
I702
tp4351
a(I773
I698
tp4352
a(I774
I695
tp4353
a(I776
I692
tp4354
a(I778
I689
tp4355
a(I778
I687
tp4356
a(I779
I686
tp4357
a(I780
I683
tp4358
a(I781
I680
tp4359
a(I781
I679
tp4360
a(I782
I676
tp4361
a(I784
I672
tp4362
a(I784
I670
tp4363
a(I784
I669
tp4364
a(I785
I667
tp4365
a(I785
I665
tp4366
a(I785
I664
tp4367
a(I785
I661
tp4368
a(I785
I660
tp4369
a(I786
I658
tp4370
a(I786
I658
tp4371
a(I786
I657
tp4372
a(I786
I656
tp4373
aI1
a(I786
I661
tp4374
a(I785
I669
tp4375
a(I781
I679
tp4376
a(I778
I690
tp4377
a(I776
I701
tp4378
a(I770
I718
tp4379
a(I765
I737
tp4380
a(I759
I758
tp4381
a(I754
I773
tp4382
a(I752
I790
tp4383
a(I748
I804
tp4384
a(I745
I817
tp4385
a(I743
I826
tp4386
a(I743
I834
tp4387
a(I742
I839
tp4388
a(I741
I843
tp4389
a(I741
I845
tp4390
a(I741
I846
tp4391
a(I741
I847
tp4392
a(I740
I848
tp4393
a(I740
I848
tp4394
a(I740
I849
tp4395
aI0
a(I741
I847
tp4396
a(I744
I841
tp4397
a(I747
I835
tp4398
a(I753
I824
tp4399
a(I761
I811
tp4400
a(I770
I796
tp4401
a(I778
I784
tp4402
a(I782
I775
tp4403
a(I786
I768
tp4404
a(I791
I760
tp4405
a(I794
I755
tp4406
a(I798
I748
tp4407
a(I802
I742
tp4408
a(I806
I737
tp4409
a(I810
I732
tp4410
a(I813
I729
tp4411
a(I817
I724
tp4412
a(I819
I722
tp4413
a(I821
I720
tp4414
a(I823
I717
tp4415
a(I825
I712
tp4416
a(I826
I710
tp4417
a(I827
I708
tp4418
a(I828
I706
tp4419
a(I829
I704
tp4420
a(I830
I702
tp4421
a(I830
I700
tp4422
a(I831
I698
tp4423
a(I832
I697
tp4424
a(I832
I696
tp4425
a(I832
I694
tp4426
a(I832
I693
tp4427
a(I833
I691
tp4428
a(I833
I689
tp4429
a(I833
I688
tp4430
a(I834
I686
tp4431
a(I835
I684
tp4432
a(I835
I683
tp4433
a(I835
I682
tp4434
a(I836
I680
tp4435
a(I837
I679
tp4436
a(I837
I678
tp4437
a(I838
I677
tp4438
a(I838
I676
tp4439
a(I838
I675
tp4440
a(I839
I675
tp4441
a(I840
I673
tp4442
a(I841
I672
tp4443
a(I843
I671
tp4444
a(I845
I670
tp4445
a(I847
I668
tp4446
a(I848
I668
tp4447
a(I849
I667
tp4448
a(I849
I666
tp4449
aI1
a(I849
I666
tp4450
a(I849
I668
tp4451
a(I849
I670
tp4452
a(I849
I673
tp4453
a(I849
I679
tp4454
a(I848
I686
tp4455
a(I845
I693
tp4456
a(I843
I702
tp4457
a(I840
I709
tp4458
a(I838
I718
tp4459
a(I834
I728
tp4460
a(I832
I741
tp4461
a(I829
I752
tp4462
a(I825
I765
tp4463
a(I821
I779
tp4464
a(I816
I792
tp4465
a(I815
I801
tp4466
a(I811
I811
tp4467
a(I809
I819
tp4468
a(I807
I827
tp4469
a(I806
I834
tp4470
a(I806
I836
tp4471
a(I804
I840
tp4472
a(I804
I842
tp4473
a(I804
I845
tp4474
a(I803
I846
tp4475
a(I803
I847
tp4476
a(I803
I850
tp4477
a(I803
I850
tp4478
a(I803
I851
tp4479
a(I803
I852
tp4480
aI0
a(I803
I852
tp4481
a(I803
I852
tp4482
a(I803
I851
tp4483
a(I803
I850
tp4484
a(I803
I850
tp4485
a(I804
I849
tp4486
a(I805
I849
tp4487
a(I805
I848
tp4488
a(I808
I848
tp4489
a(I816
I848
tp4490
a(I824
I848
tp4491
a(I831
I848
tp4492
a(I838
I848
tp4493
a(I843
I848
tp4494
a(I850
I848
tp4495
a(I853
I849
tp4496
a(I856
I850
tp4497
a(I860
I854
tp4498
a(I863
I857
tp4499
a(I865
I860
tp4500
a(I869
I868
tp4501
a(I871
I874
tp4502
a(I875
I882
tp4503
a(I879
I887
tp4504
a(I883
I894
tp4505
a(I886
I897
tp4506
a(I889
I899
tp4507
a(I890
I900
tp4508
a(I894
I901
tp4509
a(I897
I900
tp4510
a(I897
I899
tp4511
a(I897
I898
tp4512
a(I897
I896
tp4513
a(I898
I896
tp4514
a(I899
I895
tp4515
a(I899
I895
tp4516
a(I897
I895
tp4517
a(I895
I895
tp4518
a(I894
I895
tp4519
a(I893
I895
tp4520
a(I890
I896
tp4521
a(I885
I900
tp4522
a(I878
I905
tp4523
a(I871
I909
tp4524
a(I864
I914
tp4525
a(I858
I918
tp4526
a(I853
I921
tp4527
a(I849
I923
tp4528
a(I848
I923
tp4529
a(I847
I923
tp4530
a(I846
I923
tp4531
a(I846
I923
tp4532
a(I845
I923
tp4533
a(I844
I923
tp4534
a(I843
I923
tp4535
a(I843
I923
tp4536
a(I841
I923
tp4537
a(I841
I923
tp4538
a(I841
I922
tp4539
a(I842
I919
tp4540
a(I844
I917
tp4541
a(I847
I914
tp4542
a(I849
I912
tp4543
a(I851
I910
tp4544
a(I852
I909
tp4545
a(I853
I908
tp4546
a(I854
I907
tp4547
a(I855
I905
tp4548
a(I855
I904
tp4549
a(I857
I902
tp4550
a(I858
I900
tp4551
a(I860
I897
tp4552
a(I863
I895
tp4553
a(I867
I892
tp4554
a(I871
I889
tp4555
a(I875
I887
tp4556
a(I879
I885
tp4557
a(I880
I884
tp4558
a(I880
I883
tp4559
a(I881
I882
tp4560
a(I882
I881
tp4561
a(I882
I881
tp4562
a(I882
I880
tp4563
a(I882
I880
tp4564
a(I882
I879
tp4565
a(I882
I878
tp4566
a(I882
I878
tp4567
a(I881
I877
tp4568
a(I881
I876
tp4569
a(I881
I875
tp4570
a(I881
I874
tp4571
a(I882
I872
tp4572
a(I882
I870
tp4573
a(I882
I869
tp4574
a(I883
I868
tp4575
a(I883
I867
tp4576
a(I885
I865
tp4577
a(I887
I862
tp4578
a(I888
I860
tp4579
a(I889
I859
tp4580
a(I890
I858
tp4581
a(I891
I857
tp4582
a(I891
I856
tp4583
a(I891
I855
tp4584
a(I891
I854
tp4585
a(I891
I853
tp4586
a(I891
I852
tp4587
a(I891
I852
tp4588
a(I890
I851
tp4589
a(I889
I851
tp4590
a(I886
I850
tp4591
a(I886
I850
tp4592
a(I885
I849
tp4593
a(I885
I849
tp4594
a(I885
I848
tp4595
a(I885
I847
tp4596
a(I884
I846
tp4597
aI1
a(I884
I847
tp4598
a(I887
I854
tp4599
a(I892
I862
tp4600
a(I900
I871
tp4601
a(I908
I883
tp4602
a(I916
I890
tp4603
a(I926
I897
tp4604
a(I933
I902
tp4605
a(I940
I906
tp4606
a(I945
I908
tp4607
a(I948
I910
tp4608
a(I950
I912
tp4609
a(I951
I913
tp4610
a(I952
I913
tp4611
a(I952
I913
tp4612
a(I953
I914
tp4613
a(I954
I914
tp4614
aI0
a(I954
I914
tp4615
a(I954
I914
tp4616
a(I949
I914
tp4617
a(I937
I917
tp4618
a(I917
I924
tp4619
a(I894
I926
tp4620
a(I862
I931
tp4621
a(I828
I934
tp4622
a(I797
I940
tp4623
a(I769
I944
tp4624
a(I754
I944
tp4625
a(I740
I944
tp4626
a(I728
I944
tp4627
a(I718
I944
tp4628
a(I709
I944
tp4629
a(I699
I944
tp4630
a(I687
I944
tp4631
a(I678
I944
tp4632
a(I670
I944
tp4633
a(I664
I944
tp4634
a(I660
I943
tp4635
a(I659
I943
tp4636
a(I659
I943
tp4637
a(I657
I942
tp4638
a(I655
I939
tp4639
a(I653
I937
tp4640
a(I651
I935
tp4641
a(I650
I935
tp4642
a(I650
I934
tp4643
a(I649
I934
tp4644
a(I647
I934
tp4645
a(I644
I932
tp4646
a(I636
I931
tp4647
a(I626
I931
tp4648
a(I615
I931
tp4649
a(I607
I931
tp4650
a(I600
I931
tp4651
a(I598
I931
tp4652
a(I597
I930
tp4653
a(I597
I929
tp4654
a(I597
I929
tp4655
a(I597
I927
tp4656
a(I598
I925
tp4657
a(I600
I922
tp4658
a(I602
I919
tp4659
a(I606
I916
tp4660
a(I612
I913
tp4661
a(I619
I910
tp4662
a(I626
I906
tp4663
a(I632
I905
tp4664
a(I638
I900
tp4665
a(I639
I898
tp4666
a(I640
I896
tp4667
a(I641
I895
tp4668
a(I641
I892
tp4669
a(I641
I891
tp4670
a(I641
I889
tp4671
a(I641
I888
tp4672
a(I641
I887
tp4673
a(I641
I887
tp4674
a(I641
I886
tp4675
a(I640
I885
tp4676
a(I639
I884
tp4677
a(I637
I883
tp4678
a(I636
I883
tp4679
a(I635
I882
tp4680
a(I635
I881
tp4681
a(I635
I880
tp4682
a(I635
I879
tp4683
a(I635
I878
tp4684
a(I635
I877
tp4685
a(I635
I876
tp4686
a(I635
I874
tp4687
a(I635
I873
tp4688
a(I635
I871
tp4689
a(I635
I870
tp4690
a(I635
I869
tp4691
a(I635
I868
tp4692
a(I636
I867
tp4693
a(I637
I867
tp4694
a(I638
I866
tp4695
a(I640
I864
tp4696
a(I642
I863
tp4697
a(I644
I861
tp4698
a(I645
I861
tp4699
a(I646
I860
tp4700
a(I646
I859
tp4701
aI1
a(I645
I860
tp4702
a(I640
I864
tp4703
a(I633
I869
tp4704
a(I625
I874
tp4705
a(I615
I882
tp4706
a(I606
I888
tp4707
a(I598
I893
tp4708
a(I591
I899
tp4709
a(I585
I903
tp4710
a(I580
I906
tp4711
a(I575
I910
tp4712
a(I570
I912
tp4713
a(I565
I915
tp4714
a(I562
I917
tp4715
a(I559
I917
tp4716
a(I557
I919
tp4717
a(I555
I920
tp4718
a(I555
I920
tp4719
aI0
a(I554
I921
tp4720
a(I553
I921
tp4721
a(I552
I922
tp4722
a(I552
I922
tp4723
a(I552
I923
tp4724
a(I553
I923
tp4725
a(I554
I923
tp4726
a(I557
I923
tp4727
a(I559
I923
tp4728
a(I563
I923
tp4729
a(I570
I923
tp4730
a(I585
I923
tp4731
a(I605
I923
tp4732
a(I628
I923
tp4733
a(I658
I927
tp4734
a(I682
I927
tp4735
a(I711
I927
tp4736
a(I736
I928
tp4737
a(I761
I930
tp4738
a(I786
I930
tp4739
a(I802
I930
tp4740
a(I819
I930
tp4741
a(I835
I930
tp4742
a(I855
I930
tp4743
a(I873
I930
tp4744
a(I891
I930
tp4745
a(I912
I930
tp4746
a(I922
I925
tp4747
a(I922
I924
tp4748
a(I922
I919
tp4749
a(I921
I917
tp4750
a(I919
I913
tp4751
a(I919
I912
tp4752
a(I919
I908
tp4753
a(I919
I903
tp4754
a(I919
I894
tp4755
a(I920
I882
tp4756
a(I927
I861
tp4757
a(I934
I841
tp4758
a(I941
I822
tp4759
a(I946
I805
tp4760
a(I949
I794
tp4761
a(I953
I784
tp4762
a(I958
I774
tp4763
a(I962
I764
tp4764
a(I967
I757
tp4765
a(I972
I750
tp4766
a(I977
I745
tp4767
a(I983
I742
tp4768
a(I988
I738
tp4769
a(I993
I736
tp4770
a(I997
I734
tp4771
a(I998
I733
tp4772
a(I998
I733
tp4773
a(I1002
I730
tp4774
a(I1008
I725
tp4775
a(I1017
I719
tp4776
a(I1025
I714
tp4777
a(I1032
I710
tp4778
a(I1038
I706
tp4779
a(I1042
I703
tp4780
a(I1044
I701
tp4781
a(I1047
I700
tp4782
a(I1048
I698
tp4783
a(I1049
I697
tp4784
a.