(lp0
(I662
I636
tp1
aF0.00745896861497241
a(I655
I637
tp2
aF0.007985404789638864
a(I642
I641
tp3
aF0.007958778218951893
a(I625
I645
tp4
aF0.00803544991044811
a(I589
I656
tp5
aF0.007998557673954111
a(I558
I664
tp6
aF0.008021976224076383
a(I525
I675
tp7
aF0.008030958681657534
a(I490
I691
tp8
aF0.007976743134114193
a(I455
I710
tp9
aF0.007987650404034152
a(I425
I725
tp10
aF0.007994387247220014
a(I393
I740
tp11
aF0.008002407298631747
a(I366
I763
tp12
aF0.008019409807624625
a(I335
I781
tp13
aF0.007927981221530822
a(I309
I804
tp14
aF0.008062397283191539
a(I280
I827
tp15
aF0.007961344635403655
a(I250
I852
tp16
aF0.008016201787059946
a(I224
I882
tp17
aF0.007997274465728232
a(I196
I910
tp18
aF0.008021655422019935
a(I170
I932
tp19
aF0.008009144141817609
a(I146
I958
tp20
aF0.00798155516496124
a(I124
I980
tp21
aF0.007992783236937667
a(I104
I998
tp22
aF0.008006256923309363
a(I85
I1015
tp23
aF0.007995670455445886
a(I68
I1029
tp24
aF0.008008181735648184
a(I49
I1045
tp25
aF0.008011068954156403
a(I36
I1056
tp26
aF0.007977705540283597
a(I20
I1067
tp27
aF0.00799182083076827
a(I10
I1074
tp28
aF0.007987971206090627
a(I-1
I1081
tp29
aF0.008013635370608174
a(I-8
I1087
tp30
aF0.007966798270363645
a(I-9
I1085
tp31
aF0.008008181735648212
a(I-7
I1084
tp32
aF0.0080120313603258
a(I-5
I1085
tp33
aF0.007987650404034152
a(I-5
I1082
tp34
aF0.007999199278067026
a(I-1
I1080
tp35
aF0.007996312059558863
a(I-2
I1080
tp36
aF0.008006256923309418
a(I-1
I1080
tp37
aF0.008020693015850455
a(I0
I1079
tp38
aF0.007925094003022604
a(I-1
I1080
tp39
aF0.01600738101371524
a(I0
I1080
tp40
aF0.4321668863626083
aS'd'
p41
aF0.07993232359816715
aS'u'
p42
aF0.22399458229487046
a(I0
I1079
tp43
aF0.00794305891818503
a(I0
I1074
tp44
aF0.008010427350043425
a(I0
I1067
tp45
aF0.008019089005568247
a(I0
I1060
tp46
aF0.007975139123831854
a(I0
I1050
tp47
aF0.007970647895041427
a(I0
I1038
tp48
aF0.0080107481520999
a(I3
I1022
tp49
aF0.008010427350043425
a(I5
I1004
tp50
aF0.008014918578834074
a(I9
I969
tp51
aF0.007996953663671702
a(I18
I936
tp52
aF0.007998878476010551
a(I27
I907
tp53
aF0.007999840882179976
a(I36
I872
tp54
aF0.007999840882179976
a(I47
I838
tp55
aF0.00791386593104626
a(I52
I802
tp56
aF0.008066246907869168
a(I56
I774
tp57
aF0.007969364686815306
a(I58
I753
tp58
aF0.008023259432302199
a(I60
I742
tp59
aF0.007999840882179976
a(I61
I731
tp60
aF0.008024542640528098
a(I62
I722
tp61
aF0.008019409807624722
a(I63
I711
tp62
aF0.007979309550565805
a(I66
I701
tp63
aF0.007978988748509552
a(I66
I690
tp64
aF0.008005615319196524
a(I69
I679
tp65
aF0.007965835864194082
a(I70
I669
tp66
aF0.008030317077544646
a(I71
I658
tp67
aF0.007976743134114228
a(I74
I646
tp68
aF0.008017805797342126
a(I75
I635
tp69
aF0.008015880985003498
a(I76
I621
tp70
aF0.007978667946453077
a(I79
I606
tp71
aF0.007987971206090627
a(I80
I590
tp72
aF0.008013956172664649
a(I80
I579
tp73
aF0.007952682979878833
a(I80
I568
tp74
aF0.00804507397214227
a(I80
I557
tp75
aF0.007985725591695303
a(I80
I546
tp76
aF0.007999840882179976
a(I80
I536
tp77
aF0.007996632861615227
a(I80
I524
tp78
aF0.008003690506857675
a(I80
I512
tp79
aF0.00800144489246235
a(I80
I501
tp80
aF0.007996953663671702
a(I80
I490
tp81
aF0.008017805797342348
a(I80
I481
tp82
aF0.008009785745930476
a(I80
I473
tp83
aF0.007986687997864728
a(I80
I464
tp84
aF0.008011710558269325
a(I80
I455
tp85
aF0.007998557673954076
a(I80
I449
tp86
aF0.007955249396330855
a(I80
I441
tp87
aF0.008016522589116226
a(I80
I433
tp88
aF0.008027429859036372
a(I80
I426
tp89
aF0.007981875967017826
a(I80
I420
tp90
aF0.008007219329478898
a(I80
I413
tp91
aF0.00796230704157308
a(I80
I406
tp92
aF0.008007219329478676
a(I80
I401
tp93
aF0.008025825848753998
a(I80
I396
tp94
aF0.007972572707380277
a(I80
I391
tp95
aF0.008018126599398823
a(I80
I387
tp96
aF0.007988292008147102
a(I80
I385
tp97
aF0.007995670455445802
a(I80
I382
tp98
aF0.008026146650810473
a(I80
I379
tp99
aF0.007987650404034152
a(I80
I376
tp100
aF0.007993104038994225
a(I81
I374
tp101
aF0.007988933612260052
a(I81
I372
tp102
aF0.008003369704800978
a(I81
I370
tp103
aF0.007997595267784874
a(I81
I367
tp104
aF0.007969043884759053
a(I81
I364
tp105
aF0.008058868460570245
a(I82
I359
tp106
aF0.007980913560848402
a(I83
I357
tp107
aF0.00801267296443875
a(I84
I353
tp108
aF0.00800144489246235
a(I84
I350
tp109
aF0.0080008032883494
a(I84
I348
tp110
aF0.007944983730523658
a(I85
I344
tp111
aF0.008001124090405876
a(I86
I343
tp112
aF0.00805245241944097
a(I87
I340
tp113
aF0.007986367195808253
a(I87
I338
tp114
aF0.007986687997864728
a(I87
I335
tp115
aF0.00803192108782702
a(I87
I333
tp116
aF0.00798219676907408
a(I88
I331
tp117
aF0.007999520080123501
a(I89
I328
tp118
aF0.007984442383469403
a(I90
I327
tp119
aF0.008022617828189249
a(I90
I325
tp120
aF0.007975459925888329
a(I91
I322
tp121
aF0.008021013817906875
a(I91
I322
tp122
aF0.007990537622542426
a(I92
I319
tp123
aF0.008053414825610394
a(I92
I318
tp124
aF0.00795300378193553
a(I92
I316
tp125
aF0.007997595267784652
a(I93
I315
tp126
aF0.008012993766495224
a(I93
I314
tp127
aF0.007946587740806033
a(I93
I313
tp128
aF0.008028392265205797
a(I94
I310
tp129
aF0.008008823339761051
a(I94
I308
tp130
aF0.007995028851332853
a(I94
I306
tp131
aF0.007963911051855455
a(I94
I305
tp132
aF0.008018126599398823
a(I94
I304
tp133
aF0.007998557673954076
a(I94
I302
tp134
aF0.008036412316617447
a(I94
I301
tp135
aF0.00797289350943653
a(I95
I300
tp136
aF0.015993265723230676
a(I95
I300
tp137
aF0.008003369704800978
a(I95
I299
tp138
aF0.00799663286161545
a(I95
I299
tp139
aF0.007999520080123501
a(I95
I299
tp140
aF0.008008823339761051
a(I95
I297
tp141
aF0.007977384738227178
a(I96
I296
tp142
aF0.007997595267784652
a(I96
I296
tp143
aF0.008006898527422202
a(I96
I294
tp144
aF0.007981234362904877
a(I96
I294
tp145
aF0.0080008032883494
a(I96
I292
tp146
aF0.008013635370608174
a(I96
I291
tp147
aF0.01597754642246363
a(I96
I291
tp148
aF0.00801876820351155
a(I96
I289
tp149
aF0.008017805797342348
a(I97
I288
tp150
aF0.02398636976222468
a(I97
I287
tp151
aF0.3521232444508462
ag41
aF0.08796873591478471
ag42
aF0.48792132137083843
a(I97
I287
tp152
aF0.007987008799921202
a(I97
I289
tp153
aF0.007984763185525878
a(I97
I293
tp154
aF0.008038657931012771
a(I97
I299
tp155
aF0.007948191751088629
a(I98
I305
tp156
aF0.008089665457991835
a(I100
I312
tp157
aF0.007924131596853012
a(I103
I320
tp158
aF0.007995670455446025
a(I107
I329
tp159
aF0.008000482486292704
a(I113
I338
tp160
aF0.007997916069841349
a(I122
I348
tp161
aF0.007979309550565805
a(I132
I357
tp162
aF0.007988612810203577
a(I144
I367
tp163
aF0.008021976224076521
a(I155
I375
tp164
aF0.00799502885133263
a(I172
I382
tp165
aF0.008021655422020046
a(I184
I387
tp166
aF0.00794594613669286
a(I204
I392
tp167
aF0.008032883493996668
a(I223
I396
tp168
aF0.007998557673953854
a(I242
I398
tp169
aF0.007950437365483953
a(I265
I399
tp170
aF0.008203229385981281
a(I294
I399
tp171
aF0.007838798249832468
a(I309
I399
tp172
aF0.008004332110970402
a(I329
I399
tp173
aF0.007991500028711851
a(I352
I399
tp174
aF0.008010427350043425
a(I370
I399
tp175
aF0.008002407298631997
a(I383
I399
tp176
aF0.007986687997864728
a(I394
I399
tp177
aF0.008002728100688028
a(I399
I400
tp178
aF0.24802393953266222
a(I399
I400
tp179
aF0.023961988805933032
a(I400
I400
tp180
aF0.00804122434746457
a(I406
I400
tp181
aF0.007993104038994225
a(I409
I400
tp182
aF0.007981234362904654
a(I412
I400
tp183
aF0.0079786679464533
a(I413
I400
tp184
aF0.008000161684236229
a(I414
I400
tp185
aF0.09605551415426783
a(I414
I400
tp186
aF0.007960703031290706
a(I415
I400
tp187
aF0.008005936121253221
a(I417
I398
tp188
aF0.007981234362904654
a(I418
I397
tp189
aF0.007995028851333075
a(I418
I396
tp190
aF0.008035770712504942
a(I418
I394
tp191
aF0.008200342167473451
a(I418
I394
tp192
aF0.007775921046764278
a(I418
I392
tp193
aF0.008001444892462128
a(I418
I391
tp194
aF0.015991982515004555
a(I418
I391
tp195
aF0.023965517628554256
a(I418
I390
tp196
aF0.016032082772063472
a(I418
I389
tp197
aF0.008001444892462128
a(I418
I388
tp198
aF0.007985083987582353
a(I418
I387
tp199
aF0.0079574950107264
a(I418
I386
tp200
aF0.007995991257502055
a(I418
I383
tp201
aF0.008057264450288315
a(I418
I379
tp202
aF0.008000161684236673
a(I418
I376
tp203
aF0.007988292008147102
a(I419
I371
tp204
aF0.00799406644516365
a(I421
I366
tp205
aF0.0080267882549232
a(I423
I362
tp206
aF0.007918998763949858
a(I424
I361
tp207
aF0.008078116583958295
a(I424
I359
tp208
aF0.007968723082702578
a(I424
I356
tp209
aF0.008000803288349179
a(I425
I355
tp210
aF0.007993104038994225
a(I425
I353
tp211
aF0.008016522589116448
a(I426
I352
tp212
aF0.007988292008147102
a(I426
I351
tp213
aF0.007987329601977677
a(I427
I349
tp214
aF0.008038978733069246
a(I427
I349
tp215
aF0.007943379720241506
a(I427
I348
tp216
aF0.008036412316617447
a(I427
I348
tp217
aF0.007988933612260052
a(I427
I347
tp218
aF0.00804058274335162
a(I427
I345
tp219
aF0.007951078969596459
a(I427
I345
tp220
aF0.007997595267784874
a(I429
I343
tp221
aF0.00804507397214227
a(I430
I341
tp222
aF0.007975139123832076
a(I431
I340
tp223
aF0.007928302023587186
a(I433
I338
tp224
aF0.008055981242061971
a(I434
I336
tp225
aF0.007987971206090627
a(I435
I334
tp226
aF0.008000803288349623
a(I436
I333
tp227
aF0.008013956172664649
a(I436
I332
tp228
aF0.008287600326832845
a(I436
I331
tp229
aF0.0077290839465198324
a(I436
I330
tp230
aF0.007975780727945025
a(I436
I329
tp231
aF0.00799631205955853
a(I436
I328
tp232
aF0.016012834648675422
a(I436
I328
tp233
aF0.016003852191094126
a(I436
I327
tp234
aF0.007941454907902212
a(I436
I327
tp235
aF0.008045394774198744
a(I436
I326
tp236
aF0.008006898527422202
a(I436
I325
tp237
aF0.0400152445137234
a(I436
I325
tp238
aF0.007993745643107175
a(I437
I324
tp239
aF0.12802215587322818
ag41
aF0.0480054613342098
a(I434
I326
tp240
aF0.007957815812782876
a(I420
I332
tp241
aF0.007998878476010773
a(I399
I344
tp242
aF0.007911299514594461
a(I373
I356
tp243
aF0.008085815833314136
a(I356
I364
tp244
aF0.008003369704801422
a(I344
I370
tp245
aF0.007995349653389106
a(I340
I374
tp246
aF0.007987650404033708
a(I338
I375
tp247
aF0.008002728100688472
a(I337
I376
tp248
aF0.01601540106512722
a(I337
I376
tp249
aF0.0079773847382274
a(I345
I372
tp250
aF0.008008823339761051
a(I363
I365
tp251
aF0.007996632861615005
a(I401
I350
tp252
aF0.007983800779356898
a(I439
I341
tp253
aF0.008000482486292704
a(I475
I328
tp254
aF0.00801267296443875
a(I503
I321
tp255
aF0.00800721932947912
a(I518
I315
tp256
aF0.007944021324354011
a(I522
I313
tp257
aF0.008074587761337959
a(I522
I313
tp258
aF0.01596278952786534
a(I516
I313
tp259
aF0.00801235216238183
a(I486
I319
tp260
aF0.007998236871897824
a(I427
I328
tp261
aF0.0079786679464533
a(I373
I336
tp262
aF0.007995349653389994
a(I329
I343
tp263
aF0.008014276974721568
a(I318
I347
tp264
aF0.007995349653389106
a(I315
I349
tp265
aF0.007988612810203577
a(I315
I350
tp266
aF0.008011710558269769
a(I319
I351
tp267
aF0.00801588098500261
a(I330
I352
tp268
aF0.007961344635403655
a(I347
I355
tp269
aF0.008022297026132996
a(I372
I358
tp270
aF0.008026467452867614
a(I397
I359
tp271
aF0.008005936121252333
a(I408
I362
tp272
aF0.007962307041572636
a(I411
I362
tp273
aF0.016008985023997724
a(I411
I363
tp274
aF0.007996312059558974
a(I406
I365
tp275
aF0.007972893509436751
a(I396
I368
tp276
aF0.008018768203511328
a(I390
I368
tp277
aF0.024017808363758775
a(I390
I368
tp278
aF0.008005936121253221
a(I408
I365
tp279
aF0.007981875967018048
a(I442
I360
tp280
aF0.008013956172664649
a(I487
I360
tp281
aF0.007984121581412928
a(I518
I360
tp282
aF0.007975780727944581
a(I530
I360
tp283
aF0.008022617828189915
a(I530
I361
tp284
aF0.007987008799920758
a(I529
I362
tp285
aF0.007991179226655376
a(I517
I370
tp286
aF0.008017484995285429
a(I491
I381
tp287
aF0.007984121581413817
a(I458
I392
tp288
aF0.007994708049276156
a(I449
I396
tp289
aF0.008040903545407652
a(I447
I397
tp290
aF0.00794434212641093
a(I448
I400
tp291
aF0.008045715576255219
a(I453
I402
tp292
aF0.007948833355201579
a(I471
I404
tp293
aF0.008026467452866726
a(I498
I404
tp294
aF0.00801780579734146
a(I516
I404
tp295
aF0.007993104038994225
a(I517
I404
tp296
aF0.01599775695202066
a(I501
I409
tp297
aF0.007954607792217239
a(I416
I420
tp298
aF0.008030958681658262
a(I317
I420
tp299
aF0.008018126599398379
a(I245
I423
tp300
aF0.007972251905323802
a(I211
I429
tp301
aF0.00798123436290421
a(I208
I430
tp302
aF0.008020693015851066
a(I208
I430
tp303
aF0.008016843391172479
a(I223
I430
tp304
aF0.008010427350042981
a(I281
I426
tp305
aF0.007999520080123723
a(I364
I415
tp306
aF0.007992783236937306
a(I462
I404
tp307
aF0.007996953663671924
a(I540
I393
tp308
aF0.008001124090405654
a(I584
I385
tp309
aF0.007997274465728843
a(I592
I383
tp310
aF0.008025505046697745
a(I592
I383
tp311
aF0.007959419823064806
a(I581
I383
tp312
aF0.007993424841050256
a(I547
I396
tp313
aF0.00801138975621285
a(I520
I404
tp314
aF0.007935038866773603
a(I519
I405
tp315
aF0.00807683337573284
a(I519
I406
tp316
aF0.007989254414316527
a(I528
I408
tp317
aF0.007996312059558974
a(I571
I408
tp318
aF0.00800914414181797
a(I630
I408
tp319
aF0.007999840882179754
a(I666
I408
tp320
aF0.007979951154679199
a(I668
I408
tp321
aF0.008021334619964016
a(I668
I408
tp322
aF0.00794626693874978
a(I653
I412
tp323
aF0.008035770712504053
a(I591
I425
tp324
aF0.008025184244640826
a(I519
I443
tp325
aF0.007967760676533153
a(I466
I458
tp326
aF0.008002407298631553
a(I448
I468
tp327
aF0.007999520080123723
a(I448
I471
tp328
aF0.007989254414316527
a(I454
I476
tp329
aF0.00801010654798695
a(I498
I477
tp330
aF0.007959099021007887
a(I573
I477
tp331
aF0.00801491857883363
a(I646
I477
tp332
aF0.008025825848754664
a(I667
I477
tp333
aF0.008002407298631553
a(I666
I477
tp334
aF0.008006577725365283
a(I656
I477
tp335
aF0.007990216820486395
a(I584
I491
tp336
aF0.008001765694519491
a(I468
I510
tp337
aF0.00800786093359207
a(I376
I529
tp338
aF0.007986687997864728
a(I340
I533
tp339
aF0.015970488777221625
a(I378
I527
tp340
aF0.007976743134113562
a(I478
I490
tp341
aF0.008037374722786872
a(I625
I456
tp342
aF0.008013635370608618
a(I790
I420
tp343
aF0.007983159175243948
a(I907
I391
tp344
aF0.008021013817907097
a(I929
I383
tp345
aF0.007977384738226512
a(I927
I383
tp346
aF0.007990216820486395
a(I887
I391
tp347
aF0.00804379076391637
a(I776
I424
tp348
aF0.007991500028712295
a(I648
I462
tp349
aF0.007997274465727955
a(I566
I490
tp350
aF0.008001444892462573
a(I544
I503
tp351
aF0.008007860933591182
a(I546
I507
tp352
aF0.007988292008147546
a(I588
I510
tp353
aF0.007995349653389994
a(I690
I503
tp354
aF0.007995991257502055
a(I795
I482
tp355
aF0.007984763185525878
a(I849
I460
tp356
aF0.008379670517039806
a(I855
I454
tp357
aF0.007618407237037772
a(I855
I453
tp358
aF0.00801042735004387
a(I841
I453
tp359
aF0.007994066445163206
a(I783
I454
tp360
aF0.008004011308914372
a(I730
I469
tp361
aF0.007984121581412928
a(I704
I480
tp362
aF0.007926056409192306
a(I703
I484
tp363
aF0.008096081499120444
a(I704
I485
tp364
aF0.007985404789638828
a(I715
I488
tp365
aF0.007989575216372558
a(I759
I488
tp366
aF0.007942096512015162
a(I808
I484
tp367
aF0.008049565200932918
a(I838
I472
tp368
aF0.008012993766495669
a(I847
I468
tp369
aF0.008010427350042981
a(I851
I464
tp370
aF0.007922527586570638
a(I851
I463
tp371
aF0.00801427697472068
a(I851
I462
tp372
aF0.06406224586462006
a(I851
I462
tp373
aF0.015983962463592682
a(I851
I462
tp374
aF0.016000002566416427
a(I849
I462
tp375
aF0.007992462434881276
a(I849
I462
tp376
aF0.007987008799920758
a(I849
I462
tp377
aF0.8640200283139894
ag42
aF0.2320290697991485
a(I848
I462
tp378
aF0.03996487859085818
a(I848
I462
tp379
aF0.023975462492304978
a(I848
I461
tp380
aF0.2640271501196425
a(I849
I461
tp381
aF0.00797674313411445
a(I850
I460
tp382
aF0.00791579074338511
a(I852
I460
tp383
aF0.008082607812749387
a(I854
I459
tp384
aF0.007994708049276156
a(I854
I459
tp385
aF0.007956853406613007
a(I856
I457
tp386
aF0.008021655422020046
a(I858
I457
tp387
aF0.008021013817906208
a(I859
I456
tp388
aF0.007970968697097902
a(I860
I456
tp389
aF0.00800721932947912
a(I861
I454
tp390
aF0.00800721932947912
a(I862
I454
tp391
aF0.007944021324354011
a(I863
I454
tp392
aF0.007993424841051144
a(I864
I453
tp393
aF0.00807715417778887
a(I865
I453
tp394
aF0.007992462434881276
a(I867
I453
tp395
aF0.007997274465728843
a(I868
I453
tp396
aF0.008002728100687584
a(I869
I452
tp397
aF0.01598332085948062
a(I870
I452
tp398
aF0.01602213790831275
a(I870
I452
tp399
aF0.023993748209523602
a(I871
I452
tp400
aF0.007982838373187029
a(I871
I451
tp401
aF0.008003369704801422
a(I872
I450
tp402
aF0.01602181710625672
a(I873
I450
tp403
aF0.015983320859479733
a(I874
I449
tp404
aF0.016001606576698357
a(I875
I449
tp405
aF0.015967601558712907
a(I876
I448
tp406
aF0.040033851032998946
a(I876
I448
tp407
aF0.09607027104886523
ag41
aF0.11196440893664672
a(I877
I448
tp408
aF0.015912423605000114
a(I878
I448
tp409
aF0.008015880985003498
a(I878
I448
tp410
aF0.008022938630245946
a(I879
I448
tp411
aF0.007992141632824357
a(I880
I448
tp412
aF0.007998557673954743
a(I881
I448
tp413
aF0.007984121581412928
a(I881
I448
tp414
aF0.007992783236938195
a(I883
I448
tp415
aF0.00794722934491876
a(I884
I448
tp416
aF0.008005936121253221
a(I887
I448
tp417
aF0.008002086496574634
a(I888
I448
tp418
aF0.0080441115659724
a(I888
I448
tp419
aF0.007928943627700136
a(I890
I448
tp420
aF0.008064322095529874
a(I891
I448
tp421
aF0.007994387247220125
a(I892
I448
tp422
aF0.008010427350042981
a(I892
I449
tp423
aF0.007961023833347625
a(I894
I449
tp424
aF0.0080479611906501
a(I894
I449
tp425
aF0.007919961170119727
a(I895
I450
tp426
aF0.008038657931012771
a(I896
I450
tp427
aF0.008033204296052254
a(I897
I450
tp428
aF0.04002101895073995
a(I897
I451
tp429
aF0.02400112665682208
a(I897
I451
tp430
aF0.007949474959314529
a(I898
I451
tp431
aF0.008019089005568247
a(I899
I452
tp432
aF0.007990858424598457
a(I899
I453
tp433
aF0.015966639152543927
a(I900
I453
tp434
aF0.00804379076391637
a(I901
I454
tp435
aF0.008016843391172479
a(I901
I455
tp436
aF0.00797545992588855
a(I901
I455
tp437
aF0.007951078969596459
a(I902
I456
tp438
aF0.008028392265205575
a(I902
I457
tp439
aF0.008030317077544424
a(I902
I457
tp440
aF0.00797995115467831
a(I902
I458
tp441
aF0.007957174208669926
a(I902
I459
tp442
aF0.007985083987582797
a(I902
I459
tp443
aF0.00803833712895674
a(I902
I460
tp444
aF0.0080133145685517
a(I903
I461
tp445
aF0.008011710558269769
a(I903
I461
tp446
aF0.007895901015883666
a(I903
I462
tp447
aF0.008097043905290313
a(I904
I462
tp448
aF0.016000323368472458
a(I904
I463
tp449
aF0.02397225447173934
a(I904
I463
tp450
aF0.01601540106512722
a(I904
I464
tp451
aF0.008009464943874
a(I904
I464
tp452
aF0.007930226835926035
a(I904
I465
tp453
aF0.016073787039403875
a(I904
I467
tp454
aF0.008014597776777599
a(I904
I467
tp455
aF0.0079773847382274
a(I905
I467
tp456
aF0.015998719358190527
a(I905
I468
tp457
aF0.007989254414316527
a(I905
I470
tp458
aF0.007964552655967516
a(I906
I470
tp459
aF0.024046359746784596
a(I906
I470
tp460
aF0.007995991257502055
a(I906
I471
tp461
aF0.015996152941738728
a(I906
I472
tp462
aF0.007984121581412928
a(I907
I472
tp463
aF0.008028071463149544
a(I907
I473
tp464
aF0.008008823339761051
a(I907
I474
tp465
aF0.015997115347908597
a(I908
I475
tp466
aF0.007988933612259608
a(I908
I475
tp467
aF0.023987652970451023
a(I909
I476
tp468
aF0.03200513796573734
a(I909
I476
tp469
aF0.02400369307327388
a(I910
I477
tp470
aF0.016002568982868226
a(I910
I477
tp471
aF0.007993424841050256
a(I911
I477
tp472
aF0.01599198251500411
a(I912
I477
tp473
aF0.008005615319195414
a(I913
I477
tp474
aF0.007963590249797647
a(I914
I477
tp475
aF0.008003369704800534
a(I916
I477
tp476
aF0.00801812659939749
a(I917
I477
tp477
aF0.007962627843630443
a(I918
I477
tp478
aF0.008007540131535151
a(I921
I477
tp479
aF0.008043469961858563
a(I923
I477
tp480
aF0.00799984088218153
a(I926
I477
tp481
aF0.008001444892462573
a(I929
I477
tp482
aF0.007956532604557864
a(I932
I477
tp483
aF0.008018768203511328
a(I935
I477
tp484
aF0.008012031360326688
a(I936
I477
tp485
aF0.007987008799920758
a(I937
I477
tp486
aF0.008011068954155931
a(I938
I477
tp487
aF0.00801042735004387
a(I938
I477
tp488
aF0.015995511337626667
a(I939
I477
tp489
aF0.007993745643107175
a(I940
I477
tp490
aF0.008000803288348735
a(I940
I477
tp491
aF0.008010427350042093
a(I941
I476
tp492
aF0.007954286990161208
a(I942
I476
tp493
aF0.008019089005568247
a(I942
I476
tp494
aF0.007901996254956245
a(I943
I475
tp495
aF0.01614275948154642
a(I944
I475
tp496
aF0.007924773200965518
a(I946
I475
tp497
aF0.007986046393751778
a(I946
I474
tp498
aF0.00798444238346896
a(I948
I473
tp499
aF0.008063680491417813
a(I949
I473
tp500
aF0.007919319566006777
a(I951
I472
tp501
aF0.008027750661092625
a(I953
I471
tp502
aF0.008071058938716291
a(I953
I471
tp503
aF0.0079773847382274
a(I954
I471
tp504
aF0.008011068954157707
a(I957
I469
tp505
aF0.007939209293507332
a(I958
I469
tp506
aF0.008066567709924755
a(I959
I469
tp507
aF0.007953003781935308
a(I960
I469
tp508
aF0.008045715576255219
a(I961
I468
tp509
aF0.007966477468308142
a(I962
I468
tp510
aF0.008013314568552588
a(I963
I467
tp511
aF0.007937926085281433
a(I965
I466
tp512
aF0.008051810815327798
a(I965
I466
tp513
aF0.007985725591694859
a(I967
I465
tp514
aF0.00798059275879126
a(I968
I465
tp515
aF0.016014438658956465
a(I968
I465
tp516
aF0.01602470432476366
a(I969
I465
tp517
aF0.007972893509435863
a(I970
I465
tp518
aF0.008030637879601343
a(I971
I464
tp519
aF0.01596054391347046
a(I972
I464
tp520
aF0.016038178011136495
a(I973
I463
tp521
aF0.016007381013714905
a(I973
I463
tp522
aF0.007976743134113562
a(I974
I463
tp523
aF0.008007540131535151
a(I975
I463
tp524
aF0.016593486370885202
a(I975
I463
tp525
aF0.00740603627565406
a(I977
I463
tp526
aF0.01598492486976255
a(I977
I463
tp527
aF0.007999840882179754
a(I978
I463
tp528
aF0.00795011656342659
a(I978
I463
tp529
aF0.008015880985004387
a(I980
I462
tp530
aF0.008016843391173367
a(I980
I462
tp531
aF0.00797417671766354
a(I982
I461
tp532
aF0.008038337128954964
a(I982
I461
tp533
aF0.007988612810203577
a(I983
I461
tp534
aF0.007994387247219237
a(I985
I461
tp535
aF0.008002086496574634
a(I986
I461
tp536
aF0.008010748152099012
a(I987
I461
tp537
aF0.007989254414315639
a(I988
I461
tp538
aF0.008014276974721568
a(I989
I461
tp539
aF0.007995670455445136
a(I990
I461
tp540
aF0.00794466292846785
a(I992
I460
tp541
aF0.007984121581413817
a(I994
I460
tp542
aF0.008083570218920144
a(I996
I460
tp543
aF0.007935359668829634
a(I997
I460
tp544
aF0.008051810815327798
a(I999
I460
tp545
aF0.007990858424598457
a(I1000
I460
tp546
aF0.008002728100688472
a(I1000
I460
tp547
aF0.016008985023997724
a(I1001
I460
tp548
aF0.015984604067705632
a(I1002
I460
tp549
aF0.007983479977299979
a(I1002
I460
tp550
aF0.008015560182947468
a(I1003
I460
tp551
aF0.016008343419883886
a(I1004
I461
tp552
aF0.008009144141816193
a(I1004
I461
tp553
aF0.00794305891818503
a(I1004
I462
tp554
aF0.016043310844040093
a(I1005
I462
tp555
aF0.008114688018396876
a(I1005
I463
tp556
aF0.007868953643141552
a(I1005
I464
tp557
aF0.007993424841050256
a(I1006
I465
tp558
aF0.008011068954155931
a(I1006
I466
tp559
aF0.00801010654798695
a(I1007
I466
tp560
aF0.00794690854286273
a(I1007
I467
tp561
aF0.008009464943874889
a(I1007
I467
tp562
aF0.007966156666249447
a(I1008
I467
tp563
aF0.008059510064683195
a(I1009
I468
tp564
aF0.007927660419474236
a(I1009
I470
tp565
aF0.00808068300040965
a(I1010
I471
tp566
aF0.015996794545852566
a(I1011
I472
tp567
aF0.008008823339762827
a(I1011
I473
tp568
aF0.007987650404034596
a(I1012
I473
tp569
aF0.0079786679464533
a(I1012
I474
tp570
aF0.008031921087825467
a(I1012
I474
tp571
aF0.007991179226655376
a(I1012
I475
tp572
aF0.008000803288350511
a(I1012
I475
tp573
aF0.007957495010725069
a(I1013
I476
tp574
aF0.008029675473430586
a(I1013
I477
tp575
aF0.015992624119116172
a(I1015
I478
tp576
aF0.007990858424598457
a(I1015
I478
tp577
aF0.008014918578835406
a(I1015
I479
tp578
aF0.015943220602421704
a(I1016
I479
tp579
aF0.008072983751056029
a(I1017
I480
tp580
aF0.007986046393751778
a(I1017
I481
tp581
aF0.023948515119561975
a(I1018
I481
tp582
aF0.00800657772536617
a(I1019
I481
tp583
aF0.008001765694517715
a(I1019
I481
tp584
aF0.007983800779355121
a(I1021
I481
tp585
aF0.008065926105812693
a(I1022
I481
tp586
aF0.007996312059558974
a(I1024
I482
tp587
aF0.007964552655968404
a(I1025
I482
tp588
aF0.008055660440005497
a(I1028
I482
tp589
aF0.007991820830767438
a(I1030
I482
tp590
aF0.007998878476010773
a(I1033
I482
tp591
aF0.007969364686815084
a(I1035
I482
tp592
aF0.008034808306335961
a(I1038
I482
tp593
aF0.007969043884759941
a(I1042
I482
tp594
aF0.00800786093359207
a(I1046
I482
tp595
aF0.007972893509435863
a(I1048
I482
tp596
aF0.008018126599399267
a(I1054
I482
tp597
aF0.007992462434881276
a(I1055
I481
tp598
aF0.00826514418288049
a(I1061
I479
tp599
aF0.007728442342406439
a(I1065
I479
tp600
aF0.007968081478589184
a(I1070
I476
tp601
aF0.007988933612260496
a(I1074
I475
tp602
aF0.008052131617384717
a(I1079
I472
tp603
aF0.00798315917524306
a(I1084
I471
tp604
aF0.007935359668829634
a(I1089
I467
tp605
aF0.008082928614806306
a(I1094
I467
tp606
aF0.007960061427178644
a(I1098
I464
tp607
aF0.00797642233205842
a(I1101
I463
tp608
aF0.00804988600298806
a(I1105
I461
tp609
aF0.007964873458025323
a(I1109
I460
tp610
aF0.00798668799786384
a(I1111
I459
tp611
aF0.008051810815327798
a(I1114
I457
tp612
aF0.007965194260080466
a(I1115
I457
tp613
aF0.008030958681658262
a(I1117
I457
tp614
aF0.007997274465727955
a(I1119
I456
tp615
aF0.007999840882179754
a(I1120
I456
tp616
aF0.007998557673953854
a(I1120
I456
tp617
aF0.07201621205272524
a(I1121
I456
tp618
aF0.0079748183217756
a(I1121
I456
tp619
aF0.007972572707378944
a(I1122
I456
tp620
aF0.008022297026132108
a(I1123
I458
tp621
aF0.00801138975621285
a(I1123
I459
tp622
aF0.007993424841050256
a(I1124
I460
tp623
aF0.007952041375764551
a(I1124
I462
tp624
aF0.007979309550565361
a(I1126
I464
tp625
aF0.008096402301177363
a(I1127
I466
tp626
aF0.007907770691973681
a(I1129
I469
tp627
aF0.008067530116095512
a(I1130
I471
tp628
aF0.00798315917524306
a(I1131
I473
tp629
aF0.007942738116128112
a(I1132
I476
tp630
aF0.008070096532545534
a(I1133
I478
tp631
aF0.008001124090405654
a(I1133
I479
tp632
aF0.007979951154679199
a(I1133
I480
tp633
aF0.008001444892462573
a(I1134
I481
tp634
aF0.007981555164962018
a(I1134
I482
tp635
aF0.007996632861615893
a(I1135
I482
tp636
aF0.008018126599399267
a(I1135
I483
tp637
aF0.016004493795206187
a(I1135
I484
tp638
aF0.007996953663671036
a(I1135
I484
tp639
aF0.00798412158141204
a(I1136
I485
tp640
aF0.023992144199240784
a(I1136
I486
tp641
aF0.03203304774464932
a(I1137
I487
tp642
aF0.0319297494824653
a(I1138
I487
tp643
aF0.008089986260047866
a(I1138
I487
tp644
aF0.007957495010725069
a(I1140
I487
tp645
aF0.00800593612125411
a(I1141
I487
tp646
aF0.008026467452866726
a(I1143
I487
tp647
aF0.007987971206089739
a(I1146
I487
tp648
aF0.007969043884758165
a(I1148
I487
tp649
aF0.008004332110969514
a(I1150
I487
tp650
aF0.00801459777677671
a(I1154
I487
tp651
aF0.00797513912383252
a(I1157
I485
tp652
aF0.008026467452866726
a(I1161
I485
tp653
aF0.007959099021007887
a(I1165
I482
tp654
aF0.008031600285770324
a(I1168
I481
tp655
aF0.00819392612634573
a(I1170
I480
tp656
aF0.0077836202961201195
a(I1174
I479
tp657
aF0.00801042735004387
a(I1175
I478
tp658
aF0.008021334619964904
a(I1177
I478
tp659
aF0.00797385591560662
a(I1179
I476
tp660
aF0.007991179226655376
a(I1180
I475
tp661
aF0.008011710558269769
a(I1181
I475
tp662
aF0.00798283837318614
a(I1184
I473
tp663
aF0.008022938630245946
a(I1185
I472
tp664
aF0.007945304532579911
a(I1187
I471
tp665
aF0.007968723082701246
a(I1188
I470
tp666
aF0.008077474979845789
a(I1190
I469
tp667
aF0.007936642877055533
a(I1191
I469
tp668
aF0.00806913412637833
a(I1192
I468
tp669
aF0.007990216820486395
a(I1193
I466
tp670
aF0.007991820830769214
a(I1194
I466
tp671
aF0.00800914414181797
a(I1195
I465
tp672
aF0.007996632861615893
a(I1195
I464
tp673
aF0.008148693036382326
a(I1195
I464
tp674
aF0.007842647874509723
a(I1196
I462
tp675
aF0.007969043884759941
a(I1196
I461
tp676
aF0.008050206805046756
a(I1197
I459
tp677
aF0.007978026342341238
a(I1198
I458
tp678
aF0.008003048902745391
a(I1198
I456
tp679
aF0.0082244023217104
a(I1198
I455
tp680
aF0.007764051370674707
a(I1198
I453
tp681
aF0.008001124090405654
a(I1198
I451
tp682
aF0.008017805797342348
a(I1198
I449
tp683
aF0.007938246887338352
a(I1198
I448
tp684
aF0.008038978733068802
a(I1198
I446
tp685
aF0.008008502537705908
a(I1198
I444
tp686
aF0.008008502537704132
a(I1198
I442
tp687
aF0.00794466292846785
a(I1198
I438
tp688
aF0.008045715576255219
a(I1198
I437
tp689
aF0.007942738116128112
a(I1198
I434
tp690
aF0.007990858424598457
a(I1198
I431
tp691
aF0.008047961190651876
a(I1198
I428
tp692
aF0.00797161030121174
a(I1197
I426
tp693
aF0.0080453947741983
a(I1197
I424
tp694
aF0.008001124090405654
a(I1195
I421
tp695
aF0.007984763185525878
a(I1194
I419
tp696
aF0.007976743134115338
a(I1193
I417
tp697
aF0.008047640388594957
a(I1192
I415
tp698
aF0.007999520080124611
a(I1191
I414
tp699
aF0.007979951154679199
a(I1190
I413
tp700
aF0.008021976224076965
a(I1189
I412
tp701
aF0.008008502537705908
a(I1187
I410
tp702
aF0.007972251905323802
a(I1185
I409
tp703
aF0.007988933612260496
a(I1182
I408
tp704
aF0.008004011308914372
a(I1179
I405
tp705
aF0.007993745643107175
a(I1177
I405
tp706
aF0.007995028851333075
a(I1173
I404
tp707
aF0.007992783236938195
a(I1171
I404
tp708
aF0.00801267296443875
a(I1169
I404
tp709
aF0.007990537622543314
a(I1167
I404
tp710
aF0.007998236871898712
a(I1164
I403
tp711
aF0.00800208649657641
a(I1162
I402
tp712
aF0.008007219329478232
a(I1160
I402
tp713
aF0.007985083987582797
a(I1159
I402
tp714
aF0.007959099021007887
a(I1158
I402
tp715
aF0.00798412158141204
a(I1157
I402
tp716
aF0.008068171720207573
a(I1155
I402
tp717
aF0.007935359668829634
a(I1153
I402
tp718
aF0.008055660440005497
a(I1151
I402
tp719
aF0.008023580234359784
a(I1149
I402
tp720
aF0.007991500028712295
a(I1147
I402
tp721
aF0.008015239380890549
a(I1145
I402
tp722
aF0.007980271956734342
a(I1141
I402
tp723
aF0.007987971206089739
a(I1139
I402
tp724
aF0.008021334619963127
a(I1136
I402
tp725
aF0.007967439874477122
a(I1133
I402
tp726
aF0.008037053920730841
a(I1131
I402
tp727
aF0.007994066445164094
a(I1129
I402
tp728
aF0.007996953663672812
a(I1125
I403
tp729
aF0.007998236871898712
a(I1123
I404
tp730
aF0.007997595267784874
a(I1119
I406
tp731
aF0.007994708049276156
a(I1115
I407
tp732
aF0.007999840882179754
a(I1111
I410
tp733
aF0.007994708049277932
a(I1109
I412
tp734
aF0.008004973715083352
a(I1107
I415
tp735
aF0.00795236217782147
a(I1106
I417
tp736
aF0.008009785745930031
a(I1105
I418
tp737
aF0.008021976224075189
a(I1104
I420
tp738
aF0.00801267296443875
a(I1103
I423
tp739
aF0.00795139977165249
a(I1102
I425
tp740
aF0.0079786679464533
a(I1100
I426
tp741
aF0.00807394615722501
a(I1100
I429
tp742
aF0.007929264429757055
a(I1098
I432
tp743
aF0.008137785766463068
a(I1097
I435
tp744
aF0.007963269447742505
a(I1094
I439
tp745
aF0.007935680470886552
a(I1090
I445
tp746
aF0.00801235216238183
a(I1089
I449
tp747
aF0.008015239380890549
a(I1086
I455
tp748
aF0.008019730609680309
a(I1082
I461
tp749
aF0.007962948645685586
a(I1080
I467
tp750
aF0.007979309550567137
a(I1076
I473
tp751
aF0.008019409807625166
a(I1073
I478
tp752
aF0.007982517571130998
a(I1070
I484
tp753
aF0.008016522589116448
a(I1067
I486
tp754
aF0.007998236871898712
a(I1064
I490
tp755
aF0.007956532604557864
a(I1061
I495
tp756
aF0.008043469961860339
a(I1059
I498
tp757
aF0.008005294517140271
a(I1056
I501
tp758
aF0.008010748152099012
a(I1053
I503
tp759
aF0.007998236871896935
a(I1049
I505
tp760
aF0.007904562671408044
a(I1046
I508
tp761
aF0.008085174229201186
a(I1044
I510
tp762
aF0.008014276974719792
a(I1041
I512
tp763
aF0.00798668799786384
a(I1038
I513
tp764
aF0.007920281972175758
a(I1035
I515
tp765
aF0.008046998784481119
a(I1031
I517
tp766
aF0.008029675473430586
a(I1028
I519
tp767
aF0.007891409787093906
a(I1025
I520
tp768
aF0.00810891358137944
a(I1020
I522
tp769
aF0.007998878476010773
a(I1015
I524
tp770
aF0.008004332110969514
a(I1010
I526
tp771
aF0.007999520080122835
a(I1005
I528
tp772
aF0.007990537622541538
a(I1000
I530
tp773
aF0.007978026342339462
a(I998
I531
tp774
aF0.008407259493896646
a(I995
I531
tp775
aF0.007607820769173657
a(I992
I532
tp776
aF0.007975780727944581
a(I991
I532
tp777
aF0.008014918578835406
a(I987
I534
tp778
aF0.007966798270363284
a(I985
I534
tp779
aF0.008034808306334185
a(I983
I534
tp780
aF0.007964873458025323
a(I980
I534
tp781
aF0.008029996275489282
a(I978
I535
tp782
aF0.007987650404034596
a(I975
I535
tp783
aF0.007994708049276156
a(I972
I535
tp784
aF0.008025505046697745
a(I970
I535
tp785
aF0.007960382229233787
a(I967
I537
tp786
aF0.00801620178705953
a(I964
I537
tp787
aF0.00803609151456186
a(I960
I537
tp788
aF0.007964231853911485
a(I957
I537
tp789
aF0.007962627843628667
a(I952
I537
tp790
aF0.007978026342339462
a(I948
I537
tp791
aF0.008019409807625166
a(I944
I537
tp792
aF0.00798315917524306
a(I940
I537
tp793
aF0.0080453947741983
a(I937
I537
tp794
aF0.00800561531919719
a(I933
I537
tp795
aF0.00801267296443875
a(I930
I537
tp796
aF0.007976101529999724
a(I927
I537
tp797
aF0.00800914414181797
a(I925
I537
tp798
aF0.007966156666251223
a(I922
I537
tp799
aF0.008077474979845789
a(I921
I537
tp800
aF0.007958136614838907
a(I920
I537
tp801
aF0.008018768203511328
a(I918
I537
tp802
aF0.00796808147859096
a(I916
I537
tp803
aF0.008018768203511328
a(I914
I537
tp804
aF0.008023580234358008
a(I912
I537
tp805
aF0.007956211802499169
a(I910
I537
tp806
aF0.008012031360324912
a(I909
I537
tp807
aF0.007995991257502055
a(I907
I537
tp808
aF0.008014276974721568
a(I906
I537
tp809
aF0.007987971206091515
a(I905
I537
tp810
aF0.00800657772536617
a(I904
I537
tp811
aF0.007939209293507332
a(I902
I537
tp812
aF0.008093835884725564
a(I901
I537
tp813
aF0.007956211802500945
a(I900
I537
tp814
aF0.007951720573709409
a(I899
I537
tp815
aF0.007995028851333075
a(I897
I537
tp816
aF0.00804988600298806
a(I896
I537
tp817
aF0.007991179226655376
a(I894
I537
tp818
aF0.008050206805046756
a(I893
I537
tp819
aF0.007921565180401657
a(I893
I537
tp820
aF0.00800657772536617
a(I891
I537
tp821
aF0.008072021344885272
a(I890
I537
tp822
aF0.007988612810203577
a(I888
I537
tp823
aF0.007969685488872003
a(I887
I537
tp824
aF0.008025505046697745
a(I886
I537
tp825
aF0.00794690854286273
a(I885
I537
tp826
aF0.008028071463149544
a(I883
I537
tp827
aF0.007988612810203577
a(I882
I537
tp828
aF0.00801844740145441
a(I880
I537
tp829
aF0.008004011308912595
a(I879
I537
tp830
aF0.007971610301209964
a(I877
I537
tp831
aF0.008034487504277266
a(I876
I537
tp832
aF0.007983800779356898
a(I875
I537
tp833
aF0.007953645386049146
a(I874
I537
tp834
aF0.008050206805046756
a(I872
I537
tp835
aF0.007906166681690863
a(I872
I537
tp836
aF0.008060151668797033
a(I871
I537
tp837
aF0.016002568982868226
a(I870
I537
tp838
aF0.007944662928466073
a(I869
I537
tp839
aF0.008001444892460796
a(I867
I537
tp840
aF0.008063038887303975
a(I867
I537
tp841
aF0.007969685488872003
a(I866
I537
tp842
aF0.008027429859035706
a(I864
I537
tp843
aF0.008005294517140271
a(I862
I536
tp844
aF0.007956532604557864
a(I860
I535
tp845
aF0.008033845900165204
a(I860
I535
tp846
aF0.00798636719580692
a(I858
I534
tp847
aF0.008021334619963127
a(I857
I534
tp848
aF0.007973855915604844
a(I855
I533
tp849
aF0.007972893509435863
a(I854
I533
tp850
aF0.00805469803383474
a(I853
I532
tp851
aF0.007977063936170481
a(I852
I531
tp852
aF0.0080441115659724
a(I850
I531
tp853
aF0.007968402280646103
a(I849
I530
tp854
aF0.007970647895040983
a(I847
I529
tp855
aF0.008033845900165204
a(I845
I529
tp856
aF0.007970968697097902
a(I842
I527
tp857
aF0.008001444892462573
a(I839
I526
tp858
aF0.008016843391173367
a(I839
I525
tp859
aF0.007927981221531155
a(I836
I525
tp860
aF0.00807939979218375
a(I835
I524
tp861
aF0.007973855915604844
a(I833
I523
tp862
aF0.008025505046697745
a(I831
I522
tp863
aF0.007927660419474236
a(I830
I522
tp864
aF0.008004011308914372
a(I829
I521
tp865
aF0.008022617828189027
a(I827
I520
tp866
aF0.007959419823064806
a(I825
I519
tp867
aF0.008064642897586793
a(I824
I519
tp868
aF0.00801588098500261
a(I822
I519
tp869
aF0.007927981221531155
a(I819
I518
tp870
aF0.008086136635370167
a(I817
I518
tp871
aF0.00798091356084818
a(I816
I517
tp872
aF0.008006577725364394
a(I814
I516
tp873
aF0.007959740625121725
a(I812
I516
tp874
aF0.007987971206091515
a(I809
I516
tp875
aF0.00804058274335162
a(I808
I516
tp876
aF0.007975780727944581
a(I806
I516
tp877
aF0.007951720573709409
a(I803
I515
tp878
aF0.0079898960184277
a(I800
I515
tp879
aF0.008119820851300474
a(I798
I514
tp880
aF0.007996632861615893
a(I797
I514
tp881
aF0.007962307041573524
a(I795
I514
tp882
aF0.007997595267784874
a(I793
I513
tp883
aF0.008007540131535151
a(I792
I513
tp884
aF0.007933434856489896
a(I791
I513
tp885
aF0.008063359689360894
a(I789
I513
tp886
aF0.0079786679464533
a(I788
I513
tp887
aF0.008000161684236673
a(I786
I513
tp888
aF0.007969043884758165
a(I784
I513
tp889
aF0.007990216820486395
a(I783
I513
tp890
aF0.008056302044119334
a(I780
I513
tp891
aF0.007913545128989341
a(I779
I513
tp892
aF0.008046036378312138
a(I778
I513
tp893
aF0.008026467452866726
a(I775
I513
tp894
aF0.007960061427176868
a(I774
I513
tp895
aF0.008029675473430586
a(I772
I513
tp896
aF0.007995991257502055
a(I771
I513
tp897
aF0.007997595267784874
a(I768
I513
tp898
aF0.00803994113923956
a(I766
I513
tp899
aF0.007914507535158322
a(I765
I513
tp900
aF0.008092231874442746
a(I764
I513
tp901
aF0.007917073951611897
a(I762
I513
tp902
aF0.007990858424598457
a(I761
I513
tp903
aF0.008045073972141381
a(I759
I513
tp904
aF0.00796808147859096
a(I758
I513
tp905
aF0.008024863442583907
a(I756
I513
tp906
aF0.00798091356084818
a(I754
I514
tp907
aF0.008021976224076965
a(I754
I514
tp908
aF0.007978988748510218
a(I752
I514
tp909
aF0.007961665437459686
a(I750
I515
tp910
aF0.008084532625087348
a(I749
I516
tp911
aF0.00798668799786384
a(I748
I516
tp912
aF0.008004652913026433
a(I746
I517
tp913
aF0.00793985089762117
a(I745
I517
tp914
aF0.007985725591696635
a(I743
I519
tp915
aF0.008060793272909095
a(I742
I519
tp916
aF0.007936001272943471
a(I741
I519
tp917
aF0.00807715417778887
a(I739
I520
tp918
aF0.008004332110969514
a(I738
I520
tp919
aF0.007907770691973681
a(I736
I522
tp920
aF0.008075550167506051
a(I735
I522
tp921
aF0.007991820830769214
a(I734
I523
tp922
aF0.008041545149520601
a(I732
I524
tp923
aF0.00794690854286273
a(I731
I524
tp924
aF0.007961665437459686
a(I730
I525
tp925
aF0.008030637879599567
a(I728
I526
tp926
aF0.007972572707378944
a(I727
I527
tp927
aF0.008033204296053142
a(I725
I528
tp928
aF0.007995028851333075
a(I724
I529
tp929
aF0.007947229344919648
a(I723
I529
tp930
aF0.00804443236802932
a(I721
I530
tp931
aF0.007985725591694859
a(I720
I531
tp932
aF0.007967119072420203
a(I718
I532
tp933
aF0.00798668799786384
a(I716
I534
tp934
aF0.008023259432302865
a(I715
I535
tp935
aF0.007986046393751778
a(I713
I535
tp936
aF0.008053735627665759
a(I711
I537
tp937
aF0.008004332110969514
a(I709
I538
tp938
aF0.00795589100044225
a(I708
I538
tp939
aF0.00801684339117159
a(I706
I540
tp940
aF0.008009464943873112
a(I704
I541
tp941
aF0.008037695524842903
a(I703
I541
tp942
aF0.007960061427178644
a(I701
I543
tp943
aF0.00801716419322851
a(I700
I544
tp944
aF0.007969685488872003
a(I698
I544
tp945
aF0.008021013817906208
a(I697
I546
tp946
aF0.007998557673953854
a(I695
I547
tp947
aF0.008038657931011883
a(I695
I547
tp948
aF0.007913224326934198
a(I692
I549
tp949
aF0.00803833712895674
a(I692
I550
tp950
aF0.00801491857883363
a(I690
I550
tp951
aF0.007968081478589184
a(I690
I550
tp952
aF0.008014597776778487
a(I688
I552
tp953
aF0.008029675473432363
a(I687
I552
tp954
aF0.007936322074998614
a(I687
I553
tp955
aF0.008065284501698855
a(I686
I554
tp956
aF0.007977063936170481
a(I685
I554
tp957
aF0.007983159175244836
a(I685
I554
tp958
aF0.008008502537704132
a(I684
I555
tp959
aF0.007939530095564251
a(I682
I557
tp960
aF0.008022297026133884
a(I681
I557
tp961
aF0.008034487504279042
a(I680
I558
tp962
aF0.008015560182947468
a(I679
I558
tp963
aF0.007939850897619394
a(I679
I558
tp964
aF0.007998236871896935
a(I678
I559
tp965
aF0.008050206805046756
a(I676
I560
tp966
aF0.007918998763949858
a(I675
I561
tp967
aF0.008049886002989837
a(I675
I561
tp968
aF0.00803994113923956
a(I674
I561
tp969
aF0.007991500028710519
a(I673
I562
tp970
aF0.00794915415725761
a(I672
I562
tp971
aF0.008009785745930031
a(I671
I563
tp972
aF0.007955891000444026
a(I671
I563
tp973
aF0.01608726072577582
a(I669
I564
tp974
aF0.007994708049277932
a(I669
I564
tp975
aF0.007968402280644327
a(I668
I565
tp976
aF0.008026788254923645
a(I668
I565
tp977
aF0.008008502537704132
a(I667
I566
tp978
aF0.007959419823064806
a(I666
I566
tp979
aF0.01602502512682058
a(I666
I566
tp980
aF0.007960382229233787
a(I665
I567
tp981
aF1.104057921452899
a(I664
I567
tp982
aF0.00801940980762339
a(I664
I573
tp983
aF0.007961344635402767
a(I664
I586
tp984
aF0.007977063936172257
a(I663
I600
tp985
aF0.007986046393751778
a(I662
I610
tp986
aF0.008007540131535151
a(I662
I614
tp987
aF0.007993424841050256
a(I661
I617
tp988
aF0.03199070187319464
a(I661
I616
tp989
aF0.008005294517140271
a(I661
I606
tp990
aF0.007995670455445136
a(I666
I589
tp991
aF0.008015239380890549
a(I678
I568
tp992
aF0.008004973715083352
a(I694
I547
tp993
aF0.007965515062137385
a(I709
I532
tp994
aF0.008077154177790646
a(I719
I523
tp995
aF0.007958778218950968
a(I724
I520
tp996
aF0.024020374780210574
a(I724
I521
tp997
aF0.007948833355202467
a(I713
I540
tp998
aF0.008015239380890549
a(I689
I573
tp999
aF0.007998878476010773
a(I672
I602
tp1000
aF0.007973535113549701
a(I669
I608
tp1001
aF0.007995349653389994
a(I669
I609
tp1002
aF0.008023901036414927
a(I669
I610
tp1003
aF0.008005294517140271
a(I674
I610
tp1004
aF0.007961344635402767
a(I683
I603
tp1005
aF0.008022938630245946
a(I699
I579
tp1006
aF0.008116612830734837
a(I714
I547
tp1007
aF0.007869595247253613
a(I720
I531
tp1008
aF0.008039299535125721
a(I723
I522
tp1009
aF0.007967760676532265
a(I723
I521
tp1010
aF0.01602983715766726
a(I723
I521
tp1011
aF0.007966156666251223
a(I723
I527
tp1012
aF0.008345023894941406
a(I726
I545
tp1013
aF0.007679359627767113
a(I728
I554
tp1014
aF0.008019409807625166
a(I732
I562
tp1015
aF0.00788691855830237
a(I732
I563
tp1016
aF0.008053735627667535
a(I732
I564
tp1017
aF0.02408934722235223
a(I732
I565
tp1018
aF0.007938888491450413
a(I732
I571
tp1019
aF0.007977063936170481
a(I732
I578
tp1020
aF0.008039299535125721
a(I732
I580
tp1021
aF0.00800433211097129
a(I732
I581
tp1022
aF0.008008823339761051
a(I741
I578
tp1023
aF0.007971610301209964
a(I796
I550
tp1024
aF0.007992462434881276
a(I861
I519
tp1025
aF0.008029675473430586
a(I913
I491
tp1026
aF0.007973855915604844
a(I921
I491
tp1027
aF0.00801491857883363
a(I921
I490
tp1028
aF0.015971771985446637
a(I917
I493
tp1029
aF0.007985083987582797
a(I894
I519
tp1030
aF0.008007540131535151
a(I867
I561
tp1031
aF0.007959099021007887
a(I863
I585
tp1032
aF0.008036733118673922
a(I866
I593
tp1033
aF0.008020693015851066
a(I883
I595
tp1034
aF0.007951078969597347
a(I927
I590
tp1035
aF0.008063359689360894
a(I957
I575
tp1036
aF0.008016843391173367
a(I961
I570
tp1037
aF0.00795043736548351
a(I961
I569
tp1038
aF0.008025825848754664
a(I952
I568
tp1039
aF0.007994708049277932
a(I914
I571
tp1040
aF0.00791739475366704
a(I855
I587
tp1041
aF0.00800657772536617
a(I832
I595
tp1042
aF0.008058868460569357
a(I831
I595
tp1043
aF0.00798283837318614
a(I850
I595
tp1044
aF0.007998236871896935
a(I934
I568
tp1045
aF0.008026467452868502
a(I1038
I541
tp1046
aF0.008029675473432363
a(I1102
I523
tp1047
aF0.00794658774080581
a(I1105
I522
tp1048
aF0.008042186753632663
a(I1094
I522
tp1049
aF0.007965515062137385
a(I1023
I541
tp1050
aF0.008022617828189027
a(I910
I578
tp1051
aF0.008029033869318525
a(I822
I606
tp1052
aF0.008379349714983775
a(I811
I612
tp1053
aF0.007558417252477412
a(I821
I612
tp1054
aF0.007987971206091515
a(I902
I594
tp1055
aF0.008028713067261606
a(I1072
I541
tp1056
aF0.008016201787061306
a(I1281
I496
tp1057
aF0.007981234362905099
a(I1437
I464
tp1058
aF0.007953966188106065
a(I1498
I452
tp1059
aF0.00803737472278776
a(I1498
I452
tp1060
aF0.007971931103266883
a(I1456
I467
tp1061
aF0.008038016326899822
a(I1316
I521
tp1062
aF0.008001444892462573
a(I1146
I580
tp1063
aF0.007995028851333075
a(I1029
I617
tp1064
aF0.007970968697097902
a(I1014
I625
tp1065
aF0.007953003781935308
a(I1024
I625
tp1066
aF0.008000803288350511
a(I1110
I605
tp1067
aF0.008076833375731951
a(I1289
I544
tp1068
aF0.007925414805079356
a(I1413
I495
tp1069
aF0.008020051411737228
a(I1438
I479
tp1070
aF0.00801459777677671
a(I1430
I477
tp1071
aF0.008060472470852176
a(I1369
I483
tp1072
aF0.007888201766528269
a(I1186
I538
tp1073
aF0.008083249416861449
a(I963
I602
tp1074
aF0.008023580234359784
a(I799
I663
tp1075
aF0.007996312059558974
a(I715
I699
tp1076
aF0.007956532604556088
a(I710
I707
tp1077
aF0.008020693015851066
a(I715
I711
tp1078
aF0.008002728100688472
a(I756
I712
tp1079
aF0.00798668799786384
a(I864
I694
tp1080
aF0.007994066445162318
a(I979
I659
tp1081
aF0.007998557673953854
a(I1076
I623
tp1082
aF0.007981555164962018
a(I1146
I593
tp1083
aF0.0079748183217756
a(I1181
I571
tp1084
aF0.008046036378312138
a(I1183
I571
tp1085
aF0.015975942412181254
a(I1183
I571
tp1086
aF0.008026146650809807
a(I1180
I577
tp1087
aF0.007990216820486395
a(I1166
I600
tp1088
aF0.007985404789639716
a(I1152
I636
tp1089
aF0.007927339617417317
a(I1147
I660
tp1090
aF0.008012993766495669
a(I1147
I670
tp1091
aF0.008061434877022933
a(I1148
I674
tp1092
aF0.007904562671408044
a(I1148
I674
tp1093
aF0.008102497540251719
a(I1149
I674
tp1094
aF0.007995028851333075
a(I1150
I670
tp1095
aF0.007937284481169371
a(I1150
I661
tp1096
aF0.008013314568550811
a(I1150
I652
tp1097
aF0.008064322095529874
a(I1148
I643
tp1098
aF0.00791964036806192
a(I1143
I636
tp1099
aF0.008054056429722678
a(I1141
I634
tp1100
aF0.008034487504279042
a(I1139
I633
tp1101
aF0.007951399771654266
a(I1138
I633
tp1102
aF0.007969364686815084
a(I1136
I633
tp1103
aF0.008000803288350511
a(I1133
I633
tp1104
aF0.008019730609682085
a(I1127
I636
tp1105
aF0.00798444238346896
a(I1122
I639
tp1106
aF0.007993104038993337
a(I1115
I646
tp1107
aF0.007998236871898712
a(I1110
I650
tp1108
aF0.007994066445164094
a(I1106
I653
tp1109
aF0.007990537622543314
a(I1104
I654
tp1110
aF0.008255199319130213
a(I1103
I655
tp1111
aF0.5438326285846831
a(I1102
I655
tp1112
aF0.30396828935832154
a(I1101
I655
tp1113
aF0.015975942412181254
a(I1101
I656
tp1114
aF0.015984283265648713
a(I1100
I656
tp1115
aF0.031971132947751
a(I1100
I657
tp1116
aF0.007998557673953854
a(I1100
I658
tp1117
aF0.008020372213794147
a(I1100
I658
tp1118
aF0.007989896018429476
a(I1100
I659
tp1119
aF0.008017484995285429
a(I1100
I660
tp1120
aF0.016000964972587184
a(I1099
I661
tp1121
aF0.03201572443359879
a(I1099
I662
tp1122
aF0.007969685488872003
a(I1099
I663
tp1123
aF0.024013637937024157
a(I1099
I663
tp1124
aF0.01598781208827127
a(I1099
I664
tp1125
aF0.03201636603771263
a(I1099
I664
tp1126
aF0.031996476310212074
a(I1099
I665
tp1127
aF0.023958139181255333
a(I1099
I666
tp1128
aF0.008031600285770324
a(I1099
I666
tp1129
aF0.007979309550565361
a(I1098
I667
tp1130
aF0.031997438716381055
a(I1098
I668
tp1131
aF0.008019409807625166
a(I1098
I668
tp1132
aF0.015979150432745115
a(I1098
I668
tp1133
aF0.008032562691939305
a(I1098
I669
tp1134
aF0.02396840484706253
a(I1098
I670
tp1135
aF0.008031279483715181
a(I1098
I670
tp1136
aF0.016008022617826967
a(I1098
I671
tp1137
aF0.015976584016293316
a(I1098
I671
tp1138
aF0.01596888476693792
a(I1098
I672
tp1139
aF0.023999201844482343
a(I1098
I673
tp1140
aF0.03230284227413982
a(I1098
I673
tp1141
aF0.007724913519785659
a(I1098
I674
tp1142
aF0.01605903014480603
a(I1098
I675
tp1143
aF0.015943862206533765
a(I1097
I675
tp1144
aF0.007973855915604844
a(I1097
I676
tp1145
aF0.008036733118675699
a(I1097
I676
tp1146
aF0.007946266938748892
a(I1097
I677
tp1147
aF0.00812623689242642
a(I1097
I678
tp1148
aF0.007919961170117062
a(I1097
I678
tp1149
aF0.007920281972175758
a(I1096
I679
tp1150
aF0.008074587761338847
a(I1096
I680
tp1151
aF0.00793183084621063
a(I1095
I681
tp1152
aF0.016082127892872222
a(I1095
I681
tp1153
aF0.007915469941327302
a(I1095
I683
tp1154
aF0.00807137974077321
a(I1095
I683
tp1155
aF0.007967119072418427
a(I1095
I684
tp1156
aF0.008029354671375444
a(I1095
I685
tp1157
aF0.007910978712541095
a(I1094
I686
tp1158
aF0.01607731586202732
a(I1094
I686
tp1159
aF0.007966798270363284
a(I1094
I687
tp1160
aF0.0079886128102018
a(I1093
I688
tp1161
aF0.016050368489281652
a(I1093
I689
tp1162
aF0.007976422332056643
a(I1092
I690
tp1163
aF0.00797161030121174
a(I1092
I690
tp1164
aF0.016042348437871112
a(I1092
I691
tp1165
aF0.02397225447174023
a(I1092
I692
tp1166
aF0.00804218675363444
a(I1091
I693
tp1167
aF0.015890609065159822
a(I1091
I694
tp1168
aF0.00809062786416348
a(I1090
I694
tp1169
aF0.008001765694519491
a(I1090
I695
tp1170
aF0.0160128346486772
a(I1090
I695
tp1171
aF0.01597754642246585
a(I1090
I696
tp1172
aF0.007993424841050256
a(I1089
I696
tp1173
aF0.0400065828582008
a(I1089
I697
tp1174
aF0.01601732587746696
a(I1089
I698
tp1175
aF0.03196279209428354
a(I1089
I698
tp1176
aF0.31202266659009936
a(I1089
I699
tp1177
aF0.007973535113549701
a(I1091
I699
tp1178
aF0.007978026342339462
a(I1093
I699
tp1179
aF0.007995991257502055
a(I1096
I699
tp1180
aF0.007973535113549701
a(I1098
I699
tp1181
aF0.00804314915980342
a(I1100
I699
tp1182
aF0.00800593612125411
a(I1102
I699
tp1183
aF0.008005615319195414
a(I1104
I699
tp1184
aF0.007949474959314529
a(I1105
I699
tp1185
aF0.016003852191094126
a(I1105
I699
tp1186
aF0.04802085983292059
a(I1105
I699
tp1187
aF0.007988292008146658
a(I1106
I699
tp1188
aF0.008045394774196524
a(I1107
I699
tp1189
aF0.007936963679114228
a(I1108
I699
tp1190
aF0.00801588098500261
a(I1109
I699
tp1191
aF0.00798765040403282
a(I1109
I699
tp1192
aF0.007953645386045594
a(I1110
I699
tp1193
aF0.008033204296054919
a(I1112
I699
tp1194
aF0.008007219329478232
a(I1112
I699
tp1195
aF0.00801588098500261
a(I1113
I700
tp1196
aF0.008015239380888772
a(I1114
I700
tp1197
aF0.00799567045544336
a(I1115
I700
tp1198
aF0.0079106579104824
a(I1117
I700
tp1199
aF0.008046357180365504
a(I1117
I700
tp1200
aF0.008005615319198967
a(I1118
I700
tp1201
aF0.007985083987584574
a(I1121
I701
tp1202
aF0.016014438658956465
a(I1121
I701
tp1203
aF0.03190729333851294
a(I1122
I701
tp1204
aF0.04010121946485512
a(I1123
I701
tp1205
aF0.016015080263070303
a(I1123
I702
tp1206
aF0.007959740625121725
a(I1123
I703
tp1207
aF0.008019089005568247
a(I1122
I703
tp1208
aF0.00799438724722279
a(I1121
I706
tp1209
aF0.007996312059557198
a(I1119
I708
tp1210
aF0.007991500028712295
a(I1115
I710
tp1211
aF0.007996953663671036
a(I1109
I713
tp1212
aF0.008021976224075189
a(I1104
I715
tp1213
aF0.00797257270738072
a(I1095
I718
tp1214
aF0.008012031360323135
a(I1090
I722
tp1215
aF0.007992462434881276
a(I1085
I723
tp1216
aF0.007994387247219237
a(I1081
I726
tp1217
aF0.008002086496574634
a(I1079
I726
tp1218
aF0.008023901036416703
a(I1079
I726
tp1219
aF0.007977384738225624
a(I1078
I727
tp1220
aF0.08006000281664072
a(I1078
I727
tp1221
aF0.007941775709959131
a(I1081
I727
tp1222
aF0.007998236871898712
a(I1084
I728
tp1223
aF0.007991500028712295
a(I1086
I728
tp1224
aF0.008022617828189027
a(I1088
I728
tp1225
aF0.007975459925891215
a(I1089
I729
tp1226
aF0.007990858424598457
a(I1091
I730
tp1227
aF0.016043631646095236
a(I1092
I730
tp1228
aF0.015954127872340962
a(I1092
I731
tp1229
aF0.015938408571571472
a(I1092
I731
tp1230
aF0.008084532625087348
a(I1092
I732
tp1231
aF0.00799567045544336
a(I1091
I734
tp1232
aF0.008001124090405654
a(I1087
I735
tp1233
aF0.00798059275879126
a(I1083
I736
tp1234
aF0.00799663286161234
a(I1076
I739
tp1235
aF0.008019089005568247
a(I1071
I740
tp1236
aF0.007986046393750001
a(I1068
I742
tp1237
aF0.00801844740145441
a(I1067
I743
tp1238
aF0.007982517571132774
a(I1065
I744
tp1239
aF0.008018126599399267
a(I1065
I744
tp1240
aF0.05601685109042265
a(I1065
I744
tp1241
aF0.00797963035262228
a(I1070
I744
tp1242
aF0.008001444892460796
a(I1075
I744
tp1243
aF0.007972251905325578
a(I1083
I744
tp1244
aF0.007994387247219237
a(I1091
I744
tp1245
aF0.007996953663671036
a(I1098
I744
tp1246
aF0.008022617828189027
a(I1104
I744
tp1247
aF0.00793439726266243
a(I1107
I744
tp1248
aF0.008040261941296478
a(I1109
I744
tp1249
aF0.008000482486291816
a(I1110
I744
tp1250
aF0.040046041511143216
a(I1110
I744
tp1251
aF0.007945946136690196
a(I1110
I744
tp1252
aF0.007999199278067692
a(I1110
I745
tp1253
aF0.008016201787061306
a(I1110
I745
tp1254
aF0.008006256923309252
a(I1110
I747
tp1255
aF0.008009464943874889
a(I1110
I748
tp1256
aF0.11997098666201467
a(I1110
I747
tp1257
aF0.008003690506857453
a(I1110
I745
tp1258
aF0.00799887847601255
a(I1110
I742
tp1259
aF0.007996953663671036
a(I1110
I740
tp1260
aF0.007994708049277932
a(I1110
I737
tp1261
aF0.008012993766495669
a(I1110
I735
tp1262
aF0.007955891000445803
a(I1110
I732
tp1263
aF0.008036733118675699
a(I1110
I730
tp1264
aF0.00799470804927438
a(I1110
I728
tp1265
aF0.00799791606984357
a(I1110
I726
tp1266
aF0.00799085842460201
a(I1110
I725
tp1267
aF0.008022617828189027
a(I1110
I723
tp1268
aF0.008070738136659372
a(I1110
I721
tp1269
aF0.007919319566006777
a(I1110
I720
tp1270
aF0.007988933612260496
a(I1110
I720
tp1271
aF0.00798412158141204
a(I1110
I718
tp1272
aF0.007998557673953854
a(I1110
I717
tp1273
aF0.008028713067261606
a(I1110
I717
tp1274
aF0.007975139123828967
a(I1110
I715
tp1275
aF0.008019089005568247
a(I1110
I715
tp1276
aF0.007993104038995114
a(I1110
I714
tp1277
aF0.007994387247219237
a(I1110
I714
tp1278
aF0.007995028851333075
a(I1110
I713
tp1279
aF0.007994708049277932
a(I1110
I713
tp1280
aF0.008022617828189027
a(I1110
I712
tp1281
aF0.007977384738229176
a(I1110
I711
tp1282
aF0.03202053646444725
a(I1110
I711
tp1283
aF0.06406417067696069
a(I1110
I711
tp1284
aF0.0079206027742309
a(I1110
I714
tp1285
aF0.008031279483713405
a(I1110
I719
tp1286
aF0.00798219676907408
a(I1110
I723
tp1287
aF0.008018447401457962
a(I1110
I726
tp1288
aF0.007974497519718682
a(I1110
I730
tp1289
aF0.008004652913029986
a(I1110
I731
tp1290
aF0.0079761015300015
a(I1110
I733
tp1291
aF0.00802005141174078
a(I1110
I734
tp1292
aF0.008003048902747167
a(I1110
I734
tp1293
aF0.08800370333894136
a(I1110
I734
tp1294
aF0.015985887275931532
a(I1110
I734
tp1295
aF0.00798219676907408
a(I1110
I734
tp1296
aF0.007961344635404544
a(I1112
I734
tp1297
aF0.008100572727911981
a(I1115
I731
tp1298
aF0.007955570198387107
a(I1119
I727
tp1299
aF0.007970968697097902
a(I1123
I723
tp1300
aF0.008003690506857453
a(I1126
I719
tp1301
aF0.008014597776778487
a(I1130
I715
tp1302
aF0.0079911792266536
a(I1132
I713
tp1303
aF0.007992141632826133
a(I1136
I708
tp1304
aF0.008008823339761051
a(I1139
I706
tp1305
aF0.007986367195808697
a(I1141
I704
tp1306
aF0.008024221838468293
a(I1144
I701
tp1307
aF0.007974497519718682
a(I1146
I700
tp1308
aF0.007981234362905099
a(I1146
I700
tp1309
aF0.007909374702258276
a(I1147
I699
tp1310
aF0.008137144162351007
a(I1149
I699
tp1311
aF0.007884993745964408
a(I1150
I698
tp1312
aF0.008084532625087348
a(I1151
I698
tp1313
aF0.007995028851333075
a(I1152
I698
tp1314
aF0.007993104038995114
a(I1154
I698
tp1315
aF0.008000161684236673
a(I1158
I698
tp1316
aF0.008040903545406763
a(I1164
I698
tp1317
aF0.00795589100044225
a(I1169
I698
tp1318
aF0.007999520080122835
a(I1177
I698
tp1319
aF0.007994387247219237
a(I1182
I699
tp1320
aF0.007966156666249447
a(I1185
I699
tp1321
aF0.008036412316617003
a(I1188
I699
tp1322
aF0.00802005141174078
a(I1189
I699
tp1323
aF0.007974176717659986
a(I1190
I699
tp1324
aF0.02404796375707008
a(I1190
I700
tp1325
aF0.0479977620848544
a(I1191
I700
tp1326
aF0.023965838430612507
a(I1191
I702
tp1327
aF0.007937605283224514
a(I1191
I704
tp1328
aF0.008074266959283705
a(I1191
I707
tp1329
aF0.007976743134115338
a(I1191
I711
tp1330
aF0.008017164193230286
a(I1191
I716
tp1331
aF0.007954286990159432
a(I1186
I724
tp1332
aF0.008036412316617003
a(I1178
I731
tp1333
aF0.008001765694519491
a(I1168
I736
tp1334
aF0.00797513912383252
a(I1160
I741
tp1335
aF0.007983479977298202
a(I1153
I744
tp1336
aF0.008038337128958517
a(I1149
I745
tp1337
aF0.007993424841050256
a(I1147
I746
tp1338
aF0.032013478819202135
a(I1147
I746
tp1339
aF0.007994066445164094
a(I1148
I746
tp1340
aF0.007984763185525878
a(I1150
I745
tp1341
aF0.007941454907900436
a(I1153
I742
tp1342
aF0.008051490013269103
a(I1156
I740
tp1343
aF0.008006577725367947
a(I1163
I738
tp1344
aF0.007986046393750001
a(I1171
I734
tp1345
aF0.00799663286161234
a(I1181
I732
tp1346
aF0.007992783236939971
a(I1192
I731
tp1347
aF0.008006256923309252
a(I1200
I730
tp1348
aF0.008011710558267993
a(I1203
I730
tp1349
aF0.008009144141816193
a(I1204
I730
tp1350
aF0.03999663799444875
a(I1204
I730
tp1351
aF0.008002728100688472
a(I1201
I730
tp1352
aF0.008051490013272655
a(I1198
I730
tp1353
aF0.007927981221531155
a(I1197
I731
tp1354
aF0.007943700522300645
a(I1195
I732
tp1355
aF0.008049565200931141
a(I1194
I733
tp1356
aF0.008006256923309252
a(I1192
I734
tp1357
aF0.00798668799786384
a(I1190
I734
tp1358
aF0.00795492859427327
a(I1189
I734
tp1359
aF0.008060793272907318
a(I1185
I734
tp1360
aF0.007995670455446913
a(I1184
I734
tp1361
aF0.00795492859427327
a(I1182
I734
tp1362
aF0.008055018835893435
a(I1182
I732
tp1363
aF0.00799631205956075
a(I1182
I731
tp1364
aF0.007996953663674589
a(I1182
I728
tp1365
aF0.007971289499153045
a(I1182
I725
tp1366
aF0.00801940980762339
a(I1182
I721
tp1367
aF0.007975780727942805
a(I1184
I715
tp1368
aF0.007979309550563585
a(I1186
I711
tp1369
aF0.008047319586538038
a(I1189
I707
tp1370
aF0.007995670455446913
a(I1191
I703
tp1371
aF0.007973855915604844
a(I1192
I702
tp1372
aF0.008023580234358008
a(I1192
I701
tp1373
aF0.032000005132832854
a(I1192
I701
tp1374
aF0.008012672964440526
a(I1194
I702
tp1375
aF0.007980271956736118
a(I1196
I707
tp1376
aF0.008000161684236673
a(I1198
I716
tp1377
aF0.008003048902743615
a(I1199
I721
tp1378
aF0.00799631205956075
a(I1200
I728
tp1379
aF0.008019089005568247
a(I1201
I736
tp1380
aF0.007890768182978292
a(I1202
I744
tp1381
aF0.00807587096956297
a(I1202
I749
tp1382
aF0.008007540131533375
a(I1202
I755
tp1383
aF0.007976743134115338
a(I1202
I758
tp1384
aF0.007997916069840016
a(I1200
I762
tp1385
aF0.008001765694519491
a(I1199
I763
tp1386
aF0.008006256923309252
a(I1196
I767
tp1387
aF0.007994708049277932
a(I1195
I768
tp1388
aF0.008021655422020046
a(I1190
I770
tp1389
aF0.00797257270738072
a(I1183
I771
tp1390
aF0.008029033869320301
a(I1175
I771
tp1391
aF0.007942738116128112
a(I1166
I773
tp1392
aF0.00804764038859318
a(I1160
I774
tp1393
aF0.007996312059557198
a(I1156
I774
tp1394
aF0.00798668799786384
a(I1153
I774
tp1395
aF0.007993745643108952
a(I1152
I774
tp1396
aF0.040015886117835464
a(I1153
I774
tp1397
aF0.007990216820488172
a(I1155
I773
tp1398
aF0.00799214163282258
a(I1157
I770
tp1399
aF0.007990537622539762
a(I1160
I767
tp1400
aF0.008012031360326688
a(I1165
I764
tp1401
aF0.008001765694519491
a(I1171
I762
tp1402
aF0.008004973715081576
a(I1180
I758
tp1403
aF0.007955570198387107
a(I1187
I755
tp1404
aF0.008030637879599567
a(I1197
I753
tp1405
aF0.008011710558271545
a(I1206
I751
tp1406
aF0.00799919927806414
a(I1215
I746
tp1407
aF0.007974497519718682
a(I1225
I742
tp1408
aF0.008007219329478232
a(I1232
I737
tp1409
aF0.007998236871898712
a(I1237
I734
tp1410
aF0.008053414825610616
a(I1238
I732
tp1411
aF0.007995349653388217
a(I1238
I731
tp1412
aF0.007967439874477122
a(I1238
I731
tp1413
aF0.11203947661786273
a(I1239
I730
tp1414
aF0.007941134105845293
a(I1239
I730
tp1415
aF0.008021655422020046
a(I1240
I730
tp1416
aF0.00800593612125411
a(I1243
I729
tp1417
aF0.007966798270363284
a(I1247
I726
tp1418
aF0.008001765694515939
a(I1252
I723
tp1419
aF0.007994066445160541
a(I1256
I720
tp1420
aF0.007999199278067692
a(I1258
I718
tp1421
aF0.007997595267784874
a(I1262
I714
tp1422
aF0.007995670455446913
a(I1265
I711
tp1423
aF0.008007540131533375
a(I1268
I708
tp1424
aF0.00799791606984357
a(I1269
I708
tp1425
aF0.03999278836976927
a(I1270
I708
tp1426
aF0.008050848409158817
a(I1268
I712
tp1427
aF0.007965515062135609
a(I1263
I720
tp1428
aF0.007992141632826133
a(I1255
I730
tp1429
aF0.007992462434881276
a(I1247
I740
tp1430
aF0.007951078969593794
a(I1241
I747
tp1431
aF0.008045715576255219
a(I1237
I752
tp1432
aF0.00801042735004387
a(I1234
I755
tp1433
aF0.007991820830767438
a(I1233
I755
tp1434
aF0.04005053273993653
a(I1234
I755
tp1435
aF0.007997595267784874
a(I1234
I755
tp1436
aF0.007963269447742505
a(I1236
I750
tp1437
aF0.008007219329478232
a(I1242
I747
tp1438
aF0.00799631205956075
a(I1251
I743
tp1439
aF0.007978347144394604
a(I1261
I741
tp1440
aF0.00802807146315132
a(I1273
I739
tp1441
aF0.007974818321773824
a(I1283
I739
tp1442
aF0.00799310403899156
a(I1290
I739
tp1443
aF0.007997274465726179
a(I1294
I740
tp1444
aF0.008001124090405654
a(I1295
I742
tp1445
aF0.007990537622543314
a(I1295
I742
tp1446
aF0.007965515062139161
a(I1295
I743
tp1447
aF0.0080341667022239
a(I1295
I745
tp1448
aF0.00801138975621285
a(I1295
I746
tp1449
aF0.007984442383470736
a(I1295
I748
tp1450
aF0.007983479977298202
a(I1292
I748
tp1451
aF0.007993104038995114
a(I1287
I748
tp1452
aF0.008018768203513105
a(I1281
I749
tp1453
aF0.008001444892460796
a(I1277
I749
tp1454
aF0.00799984088218153
a(I1276
I749
tp1455
aF0.03205229586803782
a(I1276
I749
tp1456
aF0.007958136614838907
a(I1277
I749
tp1457
aF0.00799182083077099
a(I1281
I749
tp1458
aF0.00803095868165471
a(I1285
I751
tp1459
aF0.007926698013307032
a(I1288
I751
tp1460
aF0.08000546646704265
a(I1288
I752
tp1461
aF0.0160253459288775
a(I1288
I753
tp1462
aF0.16004750436852433
a(I1288
I753
tp1463
aF0.11996745783939389
a(I1289
I753
tp1464
aF0.008001765694519491
a(I1289
I753
tp1465
aF0.024002089062992837
a(I1290
I753
tp1466
aF0.04000241243146618
a(I1291
I753
tp1467
aF0.015987812088269493
a(I1291
I753
tp1468
aF0.007992783236936418
a(I1293
I753
tp1469
aF0.015998398556135385
a(I1293
I753
tp1470
aF0.007989896018429476
a(I1293
I753
tp1471
aF0.007989896018429476
a(I1294
I753
tp1472
aF0.007983800779356898
a(I1295
I753
tp1473
aF0.008022938630247722
a(I1295
I753
tp1474
aF0.007986687997867392
a(I1296
I753
tp1475
aF0.008009464943874889
a(I1297
I753
tp1476
aF0.008025505046699521
a(I1299
I755
tp1477
aF0.007911299514592685
a(I1301
I755
tp1478
aF0.008059510064683195
a(I1304
I755
tp1479
aF0.007998557673957407
a(I1306
I756
tp1480
aF0.00800433211097129
a(I1307
I756
tp1481
aF0.007993104038995114
a(I1308
I757
tp1482
aF0.007959099021007887
a(I1308
I757
tp1483
aF0.01603689480290882
a(I1309
I757
tp1484
aF0.024030961248072913
a(I1310
I757
tp1485
aF0.007983800779356898
a(I1310
I757
tp1486
aF0.05601203905957419
a(I1311
I758
tp1487
aF0.04000209162940749
a(I1312
I758
tp1488
aF0.01596888476693792
a(I1312
I758
tp1489
aF0.01591595242762267
a(I1313
I758
tp1490
aF0.008081324604521711
a(I1313
I758
tp1491
aF0.016035611594684696
a(I1314
I759
tp1492
aF0.007976743134115338
a(I1314
I759
tp1493
aF0.015990699306776435
a(I1314
I760
tp1494
aF0.024038339695373168
a(I1315
I760
tp1495
aF0.02397257527379537
a(I1316
I761
tp1496
aF0.03199808032049134
a(I1317
I762
tp1497
aF0.015950919851775325
a(I1317
I762
tp1498
aF0.008014276974723344
a(I1318
I763
tp1499
aF0.008029996275489282
a(I1318
I764
tp1500
aF0.015999040160249223
a(I1319
I765
tp1501
aF0.007978026342339462
a(I1319
I765
tp1502
aF0.008016201787061306
a(I1319
I766
tp1503
aF0.023983482543716406
a(I1320
I766
tp1504
aF0.02403416926863855
a(I1320
I767
tp1505
aF0.008001444892464349
a(I1320
I767
tp1506
aF0.0079786679464533
a(I1320
I768
tp1507
aF0.007971289499153045
a(I1321
I769
tp1508
aF0.00799984088218153
a(I1322
I770
tp1509
aF0.008016522589116448
a(I1322
I771
tp1510
aF0.008020372213795923
a(I1323
I772
tp1511
aF0.016136022638360004
a(I1323
I772
tp1512
aF0.007827570177855847
a(I1323
I773
tp1513
aF0.015964072736093016
a(I1323
I774
tp1514
aF0.008037695524841126
a(I1323
I774
tp1515
aF0.00791162031665138
a(I1323
I775
tp1516
aF0.008082287010694245
a(I1323
I776
tp1517
aF0.008001124090405654
a(I1323
I776
tp1518
aF0.01600962662810801
a(I1323
I777
tp1519
aF0.03999246756771413
a(I1323
I778
tp1520
aF0.00800786093359207
a(I1323
I778
tp1521
aF0.008005615319198967
a(I1323
I779
tp1522
aF0.007985404789636164
a(I1323
I779
tp1523
aF0.016018609085691082
a(I1322
I780
tp1524
aF0.015977867224520992
a(I1322
I781
tp1525
aF0.008001124090405654
a(I1322
I781
tp1526
aF0.007978988748508442
a(I1321
I782
tp1527
aF0.00802390103641315
a(I1321
I782
tp1528
aF0.007997274465729731
a(I1320
I782
tp1529
aF0.007990537622543314
a(I1319
I784
tp1530
aF0.00800689852742309
a(I1318
I784
tp1531
aF0.00797161030121174
a(I1317
I785
tp1532
aF0.008015560182947468
a(I1316
I786
tp1533
aF0.007957495010725069
a(I1315
I786
tp1534
aF0.008056943648231396
a(I1315
I786
tp1535
aF0.007946266938748892
a(I1314
I787
tp1536
aF0.008031921087827243
a(I1312
I789
tp1537
aF0.007999840882177978
a(I1311
I789
tp1538
aF0.008008823339761051
a(I1310
I789
tp1539
aF0.008021013817906208
a(I1309
I790
tp1540
aF0.007980271956736118
a(I1307
I790
tp1541
aF0.007984442383470736
a(I1306
I791
tp1542
aF0.008025505046695969
a(I1305
I791
tp1543
aF0.007992462434881276
a(I1304
I791
tp1544
aF0.007977705540280766
a(I1303
I792
tp1545
aF0.007999520080122835
a(I1302
I792
tp1546
aF0.008031921087827243
a(I1302
I792
tp1547
aF0.007962627843628667
a(I1301
I792
tp1548
aF0.008135540152064635
a(I1301
I792
tp1549
aF0.007851309530032324
a(I1300
I792
tp1550
aF0.008015239380892325
a(I1299
I792
tp1551
aF0.007962307041573524
a(I1298
I792
tp1552
aF0.008038337128958517
a(I1297
I792
tp1553
aF0.008004652913026433
a(I1296
I792
tp1554
aF0.007907770691971905
a(I1296
I792
tp1555
aF0.008122708069809192
a(I1295
I792
tp1556
aF0.023932154214680423
a(I1294
I792
tp1557
aF0.0160404236255296
a(I1294
I792
tp1558
aF0.016010589034280542
a(I1293
I792
tp1559
aF0.023987011366337185
a(I1293
I792
tp1560
aF0.032025669297350845
a(I1292
I791
tp1561
aF0.007980913560849956
a(I1292
I791
tp1562
aF0.024013637937024157
a(I1292
I791
tp1563
aF0.03199872192460873
a(I1291
I790
tp1564
aF0.2959880174015872
a(I1291
I786
tp1565
aF0.008009785745930031
a(I1308
I764
tp1566
aF0.007971931103266883
a(I1384
I694
tp1567
aF0.008031279483716958
a(I1491
I605
tp1568
aF0.007973214311491006
a(I1607
I486
tp1569
aF0.007984442383470736
a(I1735
I353
tp1570
aF0.007999520080122835
a(I1832
I242
tp1571
aF0.008004973715085129
a(I1876
I173
tp1572
aF0.007989254414319191
a(I1882
I161
tp1573
aF0.008011068954157707
a(I1882
I161
tp1574
aF0.007983800779353345
a(I1875
I165
tp1575
aF0.00801138975621285
a(I1858
I189
tp1576
aF0.007971289499153045
a(I1840
I218
tp1577
aF0.008026146650809807
a(I1835
I222
tp1578
aF0.008001444892460796
a(I1821
I222
tp1579
aF0.007976101529997948
a(I1751
I175
tp1580
aF0.008085174229197634
a(I1595
I85
tp1581
aF0.007935359668827857
a(I1333
I-40
tp1582
aF0.007983800779353345
a(I1068
I-113
tp1583
aF0.007958136614838907
a(I804
I-62
tp1584
aF0.008011389756216403
a(I608
I-12
tp1585
aF0.008027750661092625
a(I577
I3
tp1586
aF0.007995991257505608
a(I577
I6
tp1587
aF0.007988292008146658
a(I577
I6
tp1588
aF0.007989254414315639
a(I583
I9
tp1589
aF0.007975780727942805
a(I606
I18
tp1590
aF0.008037374722785984
a(I644
I34
tp1591
aF0.008000803288350511
a(I671
I53
tp1592
aF0.008012672964440526
a(I690
I71
tp1593
aF0.007990858424598457
a(I700
I88
tp1594
aF0.008001765694515939
a(I703
I105
tp1595
aF0.007997274465726179
a(I703
I119
tp1596
aF0.007993745643105399
a(I702
I127
tp1597
aF0.008009144141819746
a(I701
I132
tp1598
aF0.008005294517140271
a(I701
I135
tp1599
aF0.007983479977301755
a(I701
I136
tp1600
aF0.016048764478998834
a(I701
I137
tp1601
aF0.02395974319153993
a(I701
I137
tp1602
aF0.0240113923226275
a(I701
I140
tp1603
aF0.007949795761369671
a(I701
I145
tp1604
aF0.00805886846057291
a(I702
I152
tp1605
aF0.007948191751086853
a(I703
I161
tp1606
aF0.007992783236939971
a(I705
I170
tp1607
aF0.008028713067261606
a(I706
I178
tp1608
aF0.00794081330379015
a(I707
I184
tp1609
aF0.007995349653388217
a(I709
I189
tp1610
aF0.008049565200931141
a(I709
I190
tp1611
aF0.32803165161410064
a(I709
I194
tp1612
aF0.007961344635404544
a(I705
I207
tp1613
aF0.007958457416897602
a(I699
I226
tp1614
aF0.008041865951579297
a(I695
I245
tp1615
aF0.00799470804927438
a(I693
I262
tp1616
aF0.008011068954157707
a(I692
I276
tp1617
aF0.007975459925887662
a(I692
I286
tp1618
aF0.007985725591694859
a(I692
I296
tp1619
aF0.008021334619961351
a(I692
I306
tp1620
aF0.007996312059557198
a(I692
I313
tp1621
aF0.007987971206087963
a(I693
I321
tp1622
aF0.007999199278067692
a(I693
I325
tp1623
aF0.008019409807626943
a(I693
I329
tp1624
aF0.008006256923309252
a(I694
I332
tp1625
aF0.007969364686815084
a(I694
I335
tp1626
aF0.00802839226520291
a(I695
I336
tp1627
aF0.007970006290925369
a(I695
I336
tp1628
aF0.040038983865901656
a(I696
I337
tp1629
aF0.02391868052830759
a(I696
I337
tp1630
aF0.008047961190651876
a(I699
I337
tp1631
aF0.00801940980762339
a(I703
I336
tp1632
aF0.007947229344917872
a(I707
I334
tp1633
aF0.008017164193226733
a(I708
I334
tp1634
aF0.00822151510319813
a(I710
I333
tp1635
aF0.007772071422085247
a(I710
I333
tp1636
aF0.008045394774200076
a(I710
I333
tp1637
aF0.007999199278067692
a(I711
I333
tp1638
aF0.007988292008146658
a(I711
I333
tp1639
aF0.008001765694515939
a(I712
I333
tp1640
aF0.007996953663674589
a(I712
I332
tp1641
aF0.008001444892460796
a(I713
I332
tp1642
aF0.34404833588745376
ag42
a.